ARM GAS  C:\Users\zozo\AppData\Local\Temp\ccb2ix8M.s 			page 1


   1              		.cpu cortex-m0
   2              		.fpu softvfp
   3              		.eabi_attribute 20, 1
   4              		.eabi_attribute 21, 1
   5              		.eabi_attribute 23, 3
   6              		.eabi_attribute 24, 1
   7              		.eabi_attribute 25, 1
   8              		.eabi_attribute 26, 1
   9              		.eabi_attribute 30, 4
  10              		.eabi_attribute 34, 0
  11              		.eabi_attribute 18, 4
  12              		.code	16
  13              		.file	"cyfitter_cfg.c"
  14              		.text
  15              	.Ltext0:
  16              		.section	.gnu.lto_.profile.d9226e76,"",%progbits
  17 0000 789C6366 		.ascii	"x\234cf```e\200\000F\206\345\214\236\000\002\312\000"
  17      60606065 
  17      80004686 
  17      E58C9E00 
  17      02CA00
  18 0013 FB       		.ascii	"\373"
  19              		.text
  20              		.section	.gnu.lto_.jmpfuncs.d9226e76,"",%progbits
  21 0000 789C6366 		.ascii	"x\234cf\300\016\346Bi\026 fdbdd\006\"\346r\006F\006"
  21      C00EE642 
  21      69162066 
  21      64626464 
  21      0622E672 
  22 0017 26466529 		.ascii	"&Fe)\006\346rF\006\006&\220\314G&\306\256\327kv\362"
  22      06E67246 
  22      06062690 
  22      CC4726C6 
  22      AED76B76 
  23 002c BF60FAC9 		.ascii	"\277`\372\311\304p\207\233\201q9\243\024D\370\301\256"
  23      C470879B 
  23      817139A3 
  23      1444F8C1 
  23      AE
  24 003d AF1F1941 		.ascii	"\257\037\031A\302\214\027\370\031\030W\300\204W\334"
  24      C28C17F8 
  24      191857C0 
  24      8457DC
  25 004c 3D778C03 		.ascii	"=w\214\003,\314\303\300\270\022&zq\326\262f\260\031"
  25      2CCCC3C0 
  25      B812267A 
  25      71D6B266 
  25      B019
  26 005e 8C8C0C8C 		.ascii	"\214\214\014\214\253`\242\267^\375z\302\007\026m\330"
  26      AB60A2B7 
  26      5EFD7AC2 
  26      07166DD8 
  27 006e 76879581 		.ascii	"v\207\225\201q5P\202\201\031\344,&\260\343\000\241\021"
  27      71355082 
  27      8119E42C 
  27      26B0E300 
  27      A111
ARM GAS  C:\Users\zozo\AppData\Local\Temp\ccb2ix8M.s 			page 2


  28 0080 27E0     		.ascii	"'\340"
  29              		.text
  30              		.section	.gnu.lto_.inline.d9226e76,"",%progbits
  31 0000 789C6366 		.ascii	"x\234cf\300\016&Bi\026\006\0066VF\006&\266\017z\014"
  31      C00E2642 
  31      69160606 
  31      36564606 
  31      26B60F7A 
  32 0015 6C0BE499 		.ascii	"l\013\344\231@b\214\014\354\374@! \013&\302\302\313"
  32      40628C0C 
  32      ECFC4021 
  32      200B26C2 
  32      C2CB
  33 0027 C0C03CC1 		.ascii	"\300\300<\301\217a\202\037\023\203\374\025\240\002&"
  33      8F61821F 
  33      1383FC15 
  33      A00226
  34 0036 A50B9D4C 		.ascii	"\245\013\235Lpi&n\220&\\$#\027P\0113\203\352%\220\210"
  34      7069266E 
  34      90265C24 
  34      23175009 
  34      3383EA25 
  35 004c D5814D2C 		.ascii	"\325\201M,\010\213\270`\0043\017Pn\202\037\320\012\000"
  35      088BB860 
  35      04330F50 
  35      6E821FD0 
  35      0A00
  36 005e 29AC0E28 		.ascii	")\254\016("
  37              		.text
  38              		.section	.gnu.lto_.pureconst.d9226e76,"",%progbits
  39 0000 789C6366 		.ascii	"x\234cf``\340d\200\000\026\006)F\011&)f+\000\002\333"
  39      6060E064 
  39      80001606 
  39      29460926 
  39      29662B00 
  40 0016 009D     		.ascii	"\000\235"
  41              		.text
  42              		.section	.gnu.lto_AnalogSetDefault.d9226e76,"",%progbits
  43 0000 789C6366 		.ascii	"x\234cf\300\004R@\234\307\310\300\240\005\244\031\231"
  43      C0045240 
  43      9CC7C8C0 
  43      A005A419 
  43      99
  44 0011 19189926 		.ascii	"\031\030\231&\234c`h\344`bd\0041\030\030\031\352\231"
  44      9C636068 
  44      E4606264 
  44      04311818 
  44      19EA99
  45 0024 18EB195F 		.ascii	"\030\353\031_2}db\234p`\365\014n\365\245\015\015\015"
  45      327D6462 
  45      9C7060F5 
  45      0C6EF5A5 
  45      0D0D0D
  46 0037 1F0E7D2D 		.ascii	"\037\016}-i\230\222\360\223\211\201\3413\023\304\034"
  46      699892F0 
  46      938981E1 
  46      3313C41C 
ARM GAS  C:\Users\zozo\AppData\Local\Temp\ccb2ix8M.s 			page 3


  47 0047 C6E58CEA 		.ascii	"\306\345\214\352\014@E\037[\376^\347fk\001*\022\200"
  47      0C40451F 
  47      5BFE5EE7 
  47      666B012A 
  47      1280
  48 0059 C831AE60 		.ascii	"\3101\256`d\003\232\317\260^\350@\303\377\377\237\257"
  48      64039ACF 
  48      B05EE840 
  48      C3FFFF9F 
  48      AF
  49 006a 4D5EA1C7 		.ascii	"M^\241\307\314\312\300\360\004(\007\262\341)\023\023"
  49      CCCAC0F0 
  49      042807B2 
  49      E1291313 
  50 007a 8866BEC5 		.ascii	"\210f\276\305x\350\303\206\353\312 \325@S\346\316\237"
  50      78E8C386 
  50      EBCA20D5 
  50      4053E6CE 
  50      9F
  51 008b E9FB82E9 		.ascii	"\351\373\202\351'\023\343\206\206\003\215, s\357?9\177"
  51      2713E386 
  51      86038D2C 
  51      2073EF3F 
  51      397F
  52 009d 91032CC4 		.ascii	"\221\003,\304\000\342\316\277\363\362\036\353\\\306"
  52      00E2CEBF 
  52      F3F21EEB 
  52      5CC6
  53 00ab D98D2D8C 		.ascii	"\331\215-\214?\231\230\030W2J1\256b\004\372\205q5\343"
  53      3F999818 
  53      57324A31 
  53      AE6204FA 
  53      857135E3 
  54 00bf 5C46A07C 		.ascii	"\\F\240|\337\272%\237\371A\312\231\201~Z\003\224\001"
  54      DFBA259F 
  54      F941CA99 
  54      817E5A03 
  54      9401
  55 00d1 997FE13A 		.ascii	"\231\177\341:3\324\374\345g:\026\360A-8\002\261\340"
  55      33D4FCE5 
  55      673A16F0 
  55      412D3802 
  55      B1E0
  56 00e3 C0EF972D 		.ascii	"\300\357\227-\\\010\023\327\302M\\\0074\021n\304\204"
  56      5C0813D7 
  56      C24D5C07 
  56      34116EC4 
  56      84
  57 00f4 3B30235E 		.ascii	";0#^\256\335\266\017\342\240\2069\177 F<\334\177z6;"
  57      AEDDB60F 
  57      E2A08639 
  57      7F20463C 
  57      DC7F7A36 
  58 0109 C288F570 		.ascii	"\302\210\365p#6@\034\325\270lw\017;\330Q@\261\215@\231"
  58      2336401C 
  58      D5B86C77 
  58      0F3BD851 
ARM GAS  C:\Users\zozo\AppData\Local\Temp\ccb2ix8M.s 			page 4


  58      40B18D40 
  59 011e 7B8C8D07 		.ascii	"{\214\215\007>\373\201\014\004\005\341\023\240\337\200"
  59      3EFB810C 
  59      0405E113 
  59      A0DF80
  60 012d 41010C18 		.ascii	"A\001\014\030\015\275\030\367\324\274\324\242\304\222"
  60      0DBD18F7 
  60      D4BCD4A2 
  60      C492
  61 013b D494F8E0 		.ascii	"\324\224\370\340\374\322\242\344\324\230\200\340|g\223"
  61      FCD2A2E4 
  61      D49880E0 
  61      7C6793
  62 014a 98E4CAB4 		.ascii	"\230\344\312\264\314\222\222\324\242\370\344\264t\275"
  62      CC9292D4 
  62      A2F8E4B4 
  62      74BD
  63 0158 640600A7 		.ascii	"d\006\000\247e\224\363"
  63      6594F3
  64              		.text
  65              		.section	.gnu.lto_CYMEMZERO.d9226e76,"",%progbits
  66 0000 789C658F 		.ascii	"x\234e\217\277KBQ\024\307\317\367\334\247\031\006ES"
  66      BF4B4251 
  66      14C7CFF7 
  66      DCA71906 
  66      4553
  67 0012 38052106 		.ascii	"8\005!\006\221S\177@\320Pc\340*H\3303Z\024\314\206\006"
  67      91537F40 
  67      D05063E0 
  67      2A48D833 
  67      5A14CC86 
  68 0027 F11A26D1 		.ascii	"\361\032&\321\020\321\324\024AE?\254'\005\015\005\306"
  68      10D1D414 
  68      41453FAC 
  68      27050D05 
  68      C6
  69 0038 AB215AAA 		.ascii	"\253!Z\252\241\240\206h\251\240hI\014\344\021f\367\352"
  69      A1A08668 
  69      A9A06849 
  69      0CE41166 
  69      F7EA
  70 004a 56172EE7 		.ascii	"V\027.\347|/\337\357\347\236#\350\377\361\251;\002\242"
  70      7C2FDFEF 
  70      E79E23E8 
  70      FFF1A93B 
  70      02A2
  71 005c A0AA1004 		.ascii	"\240\252\020\004^\272&\312z\030\320\015\2012\214\014"
  71      5EBA26CA 
  71      7A18D00D 
  71      81328C0C 
  72 006c DEB9CC58 		.ascii	"\336\271\314X\262\013+\336\300\246\224\362\363\274\330"
  72      B20B2BDE 
  72      C0A694F2 
  72      F3BCD8
  73 007b 32D7E530 		.ascii	"2\327\3450Q\205\233\030l!\240,\013\033\007km\242\017"
  73      51859B18 
  73      6C21A02C 
ARM GAS  C:\Users\zozo\AppData\Local\Temp\ccb2ix8M.s 			page 5


  73      0B1B076B 
  73      6DA20F
  74 008e A4FA63EB 		.ascii	"\244\372c\353\353\312\373\306\016\243[\313\223\345\313"
  74      EBCAFBC6 
  74      0EA35BCB 
  74      93E5CB
  75 009d 15B7966C 		.ascii	"\025\267\226lh\371Q^\236\027\376u)g\355\322\241\034"
  75      68F9515E 
  75      9E17FE75 
  75      2967EDD2 
  75      A11C
  76 00af 341C16D8 		.ascii	"4\034\026\330\206P<\354\300\207]\370H=\021\012\360+"
  76      86503CEC 
  76      C0875DF8 
  76      483D110A 
  76      F02B
  77 00c1 F7DDC373 		.ascii	"\367\335\303s\336\020\375\015\356Q\311\272ho&o\232I"
  77      DE10FD0D 
  77      EE51C9BA 
  77      686F266F 
  77      9A49
  78 00d3 037B7F93 		.ascii	"\003{\177\223\006a\037~m/\347j\367^wNM\335\321\234\026"
  78      06611F7E 
  78      6D2FE76A 
  78      F75E774E 
  78      4DDDD19C 
  79 00e8 16DC6A61 		.ascii	"\026\334ja*v\332\262^\257\234\236\375\300\245\326U\037"
  79      2A76DAB2 
  79      5EAF9C9E 
  79      FDC0A5D6 
  79      551F
  80 00fa 093442F4 		.ascii	"\0114B\364\242lz\373Wf]\305#\362v\255U\3474p\365v\321"
  80      A26C7AFB 
  80      57665DC5 
  80      23F276AD 
  80      55E73470 
  81 0111 E2F4B79C 		.ascii	"\342\364\267\234\227\036\207]\025V,\024\221\246*3z|"
  81      971E875D 
  81      15562C14 
  81      91A62A33 
  81      7A7C
  82 0123 55160EBB 		.ascii	"U\026\016\273\351\011Y\273\356jDH\003\241A\012\333\033"
  82      E90959BB 
  82      EE6A4448 
  82      03A1410A 
  82      DB1B
  83 0135 0C0F9B71 		.ascii	"\014\017\233q39\2262\307#\241\304t2j\206GC\211\241\201"
  83      33399632 
  83      C723A1C4 
  83      74326A86 
  83      474389A1 
  84 014a 70742636 		.ascii	"pt&6\231J\231\311H46\021\214\022\246\020\377\005\321"
  84      994A99C9 
  84      48343611 
  84      8C12A610 
  84      FF05D1
  85 015d 3C8002   		.ascii	"<\200\002"
ARM GAS  C:\Users\zozo\AppData\Local\Temp\ccb2ix8M.s 			page 6


  86              		.text
  87              		.section	.gnu.lto_ClockSetup.d9226e76,"",%progbits
  88 0000 789C7595 		.ascii	"x\234u\225KLSA\024\206\347\314\255\245\364\362Pw\262"
  88      4B4C5341 
  88      1486E7CC 
  88      ADA5F4F2 
  88      5077B2
  89 0013 74A331EA 		.ascii	"t\2431\352\312\275&.\\\2701qK\242\006\253q\243\011\301"
  89      CABD262E 
  89      5CB83171 
  89      4BA206AB 
  89      71A309C1 
  90 0027 8546E32D 		.ascii	"\205F\343-4\004\013\012\301\267XMT\024\245\362R+R\201"
  90      34040B0A 
  90      C1B7584D 
  90      5414A5F2 
  90      522B5281 
  91 003b 826F442C 		.ascii	"\202oD,\002\202XD\015UA\015}\240X\224\32633wnQK\223"
  91      02825844 
  91      0D55410D 
  91      7DA05894 
  91      D6333377 
  92 0053 DEDB76CE 		.ascii	"\336\333v\316\377\235s\376{f\252\220\377_9\370v\233"
  92      FF9D73FE 
  92      7B66AA90 
  92      FF5F39F8 
  92      769B
  93 0065 09598177 		.ascii	"\011Y\201wP\010\320\212\036B\354\026\012\300>\020 \207"
  93      5008D08A 
  93      1E42EC16 
  93      0AC03E10 
  93      2087
  94 0077 281C8271 		.ascii	"(\034\202q\032\246P\341\253=\255.\253\3264-T9P\240\035"
  94      1AA650E1 
  94      AB3DAD2E 
  94      ABD6342D 
  94      543950A0 
  95 008c DF1AA384 		.ascii	"\337\032\243\204D\251\340\300UXF0(\354\230\035T\315"
  95      44A9E0C0 
  95      55584630 
  95      28EC981D 
  95      54CD
  96 009e 0E0C5A28 		.ascii	"\016\014Z(\326\240\006\314\200\367\372\305>-\221\270"
  96      D6A006CC 
  96      80F7FAC5 
  96      3E2D91B8 
  97 00ae 3950F964 		.ascii	"9P\371d-]\222Nb\024\254\354\222\311.Y\354B\310\030\306"
  97      2D5D924E 
  97      6214ACEC 
  97      92C92E59 
  97      EC42C818 
  98 00c3 B3AC414A 		.ascii	"\263\254AJ\331]\031\206\316P\350\325RF@rU[\260?\375"
  98      D95D1986 
  98      CE50E8D5 
  98      52464072 
  98      555BB03F 
  99 00d8 338D51DA 		.ascii	"3\215Q\332\240\3714\023K6:\366\242\327\302\177\"\354"
ARM GAS  C:\Users\zozo\AppData\Local\Temp\ccb2ix8M.s 			page 7


  99      A0F93413 
  99      4B363AF6 
  99      A2D7C27F 
  99      22EC
 100 00ea EB706947 		.ascii	"\353piG\003uA\225\335\0011\252\3005\310\201\353\200"
 100      03754195 
 100      DD0131AA 
 100      C035C881 
 100      EB80
 101 00fc 0D422DB8 		.ascii	"\015B-\270\000\327K\276\235)WY8,&\340\306\225\000\024"
 101      00D74BBE 
 101      9D295759 
 101      382C26E0 
 101      C6950014 
 102 0110 F94256C6 		.ascii	"\371BV\306g\362\363}G\353\350\301_Z\211f\211QS\224U"
 102      67F2F37D 
 102      47EBE8C1 
 102      5F5A8966 
 102      89515394 
 103 0125 0437E020 		.ascii	"\0047\340 \326\266\000#\035\276H\352Hs\224\245\207:"
 103      D6B60023 
 103      1DBE48EA 
 103      487394A5 
 103      873A
 104 0137 8C64354C 		.ascii	"\214d5L\314\214e\261\034i\232'\260\200@=\344\304\250"
 104      CC8C65B1 
 104      1C699A27 
 104      B080403D 
 104      E4C4A8
 105 014a 85EBA752 		.ascii	"\205\353\247R\353\323\243TA}\203\320\367\236\275R\224"
 105      EBD3A354 
 105      417D83D0 
 105      F79EBD52 
 105      94
 106 015b CDF540A0 		.ascii	"\315\365@\240\221\211\255\\<3or\023\212\233\204\270"
 106      9189AD5C 
 106      3C336F72 
 106      138A9B84 
 106      B8
 107 016c 66A4E711 		.ascii	"f\244\347\021\367#-\203\300M\221\231\231\350\037\245"
 107      F7232D83 
 107      C04D9199 
 107      99E81FA5 
 108 017c BA89911F 		.ascii	"\272\211\221\037\343\373\271a\216B\267\360\260\3175"
 108      E3FBB961 
 108      8E42B7F0 
 108      B0CF35
 109 018b F2352D69 		.ascii	"\3625-i\332-\303\264\333\302\264\223\027'\202\231\334"
 109      DA2DC3B4 
 109      DBC2B493 
 109      17278299 
 109      DC
 110 019c B4627CA8 		.ascii	"\264b|\250\026\002\036\\e\320\212\240\204\272\016_>"
 110      16021E5C 
 110      65D08AA0 
 110      84BA0E5F 
 110      3E
ARM GAS  C:\Users\zozo\AppData\Local\Temp\ccb2ix8M.s 			page 8


 111 01ad C3436899 		.ascii	"\303Ch\231C\247\216^\015\270\325$\365\216Am\026\324"
 111      43A78E5E 
 111      0DB8D524 
 111      F58E416D 
 111      16D4
 112 01bf 874DB7E3 		.ascii	"\207M\267\343\224S\021\212\022\270+\250?\234\221\225"
 112      9453118A 
 112      12B82BA8 
 112      3F9C9195 
 113 01cf 8C3A4DD3 		.ascii	"\214:M\3231\252\263.R\246\260(\365\247\326l\377\373"
 113      31AAB32E 
 113      52A6B028 
 113      F5A7D66C 
 113      FFFB
 114 01e1 91ABFC91 		.ascii	"\221\253\374\221\207[:g\024\231'\003Z0\217\227\347\271"
 114      875B3A67 
 114      14992703 
 114      5A308F97 
 114      E7B9
 115 01f3 87791058 		.ascii	"\207y\020X4e\0268\253 \236\035\014Nq\"P\002\255\"g%"
 115      34651638 
 115      AB209E1D 
 115      0C4E7122 
 115      5002AD22 
 116 0209 E87D18E9 		.ascii	"\350}\030\351\250\221\356/\276\002mF\037\355\310G\252"
 116      A891EE2F 
 116      BE026D46 
 116      1FEDC847 
 116      AA
 117 021a B0F79374 		.ascii	"\260\367\223t\242{\330]e\342\204\337\222\020}\\\355"
 117      A27BD85D 
 117      65E284DF 
 117      92107D5C 
 117      ED
 118 022b 99E384CF 		.ascii	"\231\343\204\317 t\350\376\036m\374\"\234\270q\200@"
 118      2074E8FE 
 118      1E6DFC22 
 118      9CB87180 
 118      40
 119 023c A7B4A16B 		.ascii	"\247\264\241k\225\250;\023C&\372\2064\356\257\372\365"
 119      95A83B13 
 119      4326FA86 
 119      34EEAFFA 
 119      F5
 120 024d 9D57509F 		.ascii	"\235WP\237\025\027\036\266&\373\276o\364\375@\357\373"
 120      15171EB6 
 120      26FBBE6F 
 120      F4FD40EF 
 120      FB
 121 025e A7DE7796 		.ascii	"\247\336w\226@\034;r\237\273\006\323\211D\"\233\300"
 121      401C3B72 
 121      9FBB06D3 
 121      8944229B 
 121      C0
 122 026f C37F5A37 		.ascii	"\303\177Z7R\320\324)\024xd\024\376\230\267\236\305\307"
 122      52D0D429 
 122      14786414 
ARM GAS  C:\Users\zozo\AppData\Local\Temp\ccb2ix8M.s 			page 9


 122      FE98B79E 
 122      C5C7
 123 0281 D2A3A61C 		.ascii	"\322\243\246\034\313\314(\356\031\002O\304X\276k\371"
 123      CBCC28EE 
 123      19024FC4 
 123      58BE6BF9 
 124 0291 1E063E96 		.ascii	"\036\006>\226~L\375\224\315\245P7\247VgG)\236H\320%"
 124      7E4CFD94 
 124      CDA55037 
 124      A7566747 
 124      299E48D0 
 125 02a6 D4CE2FEE 		.ascii	"\324\316/\356\273|G,\014\250\004\2361\365\"a\373\244"
 125      BB7C472C 
 125      0CA8049E 
 125      31F52261 
 125      FBA4
 126 02b8 B4BD2A10 		.ascii	"\264\275*\020\236\344!T+v\210\001\034\034q\266\232\222"
 126      9EE42154 
 126      2B768801 
 126      1C1C71B6 
 126      9A92
 127 02ca D5771BD5 		.ascii	"\325w\033\325?\027\266\327\307\233\"\031b\000\333\274"
 127      3F17B6D7 
 127      C79B2219 
 127      6200DBBC 
 128 02da B8D57AE4 		.ascii	"\270\325z\344TOI\350\211@mO\206\200j:\264\243\325\271"
 128      544F49E8 
 128      89406D4F 
 128      86806A3A 
 128      B4A3D5B9 
 129 02ee 3FC97C61 		.ascii	"?\311|a0\375\202\371\241f\274\213\367\011\276x\021\333"
 129      30FD82F9 
 129      A166BC8B 
 129      F709BE78 
 129      11DB
 130 0300 2ABD3AD4 		.ascii	"*\275:\324\377]B\333\373\313\313\004\264Dn\300\366F"
 130      FF5D42DB 
 130      FBCBCB04 
 130      B4446EC0 
 130      F646
 131 0312 E7054852 		.ascii	"\347\005HR_\032\324>A\255\214\007\035Vc\253 \265_\226"
 131      5F1AD43E 
 131      41AD8C07 
 131      1D5663AB 
 131      20B55F96 
 132 0326 3A2DA9DE 		.ascii	":-\251\336\332Sw\322D\251\222z\254\324;9\247\377\001"
 132      DA5377D2 
 132      44A9927A 
 132      ACD43B39 
 132      A7FF01
 133 0339 83FA4A50 		.ascii	"\203\372JP\355W\274e\\\302N\271AY\347oI\014\272J\337"
 133      ED57BC65 
 133      5CC24EB9 
 133      4159E76F 
 133      490CBA4A 
 134 034e 0B47CF15 		.ascii	"\013G\317\025\352\315\3176>\3708\347t\0352\210\257\005"
 134      EACDCF36 
ARM GAS  C:\Users\zozo\AppData\Local\Temp\ccb2ix8M.s 			page 10


 134      3EF838E7 
 134      741D3288 
 134      AF05
 135 0360 B1E952B5 		.ascii	"\261\351R\265\207\237\317\260\216\300\260$\316J\342"
 135      879FCFB0 
 135      8EC0B024 
 135      CE4AE2
 136 036f BC27C21B 		.ascii	"\274'\302\033\224\313\355\037\362\307e\374\274\207y"
 136      94CBED1F 
 136      F2C765FC 
 136      BC8779
 137 037e 80C5B38A 		.ascii	"\200\305\263\212\337\202\3357\273\221O\020a\177\036"
 137      DF82DD37 
 137      BB914F10 
 137      617F1E
 138 038d C0FE34F0 		.ascii	"\300\3764\360(^\276:w\203m\267-\177[\201m\373\226\315"
 138      285EBE3A 
 138      77836DB7 
 138      2D7F5B81 
 138      6DFB96CD 
 139 03a1 7BF6E6E7 		.ascii	"{\366\346\347\331r7m\336\263~Mn\336\276\035\273\012"
 139      D972376D 
 139      DEB37E4D 
 139      6EDEBE1D 
 139      BB0A
 140 03b3 0A6CF95B 		.ascii	"\012l\371[\362v\354\\\235G\376\000\265\213~\230"
 140      F276EC5C 
 140      9D47FE00 
 140      B58B7E98 
 141              		.text
 142              		.section	.gnu.lto_cyfitter_cfg.d9226e76,"",%progbits
 143 0000 789C8596 		.ascii	"x\234\205\226YP\024G\030\307\373\353\331\203=\270\004"
 143      59501447 
 143      18C7FBEB 
 143      D9833DB8 
 143      04
 144 0011 64C58750 		.ascii	"d\305\207P\245\345Q\211\362\020\036\362\224\262JS&\225"
 144      A5E55189 
 144      F2101EF2 
 144      94B24A53 
 144      2695
 145 0023 54C52A5E 		.ascii	"T\305*^\255\242R\004S>\030+J\036\362`9\300r\005\017"
 145      ADA25204 
 145      533E182B 
 145      4A1EF260 
 145      39C07205 
 146 0038 82894188 		.ascii	"\202\211A\210\006<P!\242\200A\0245\253(\242\034\202"
 146      063C5021 
 146      A2804114 
 146      35AB28A2 
 146      1C82
 147 004a 5C72AD2B 		.ascii	"\\r\255+.\342\201\310\261\001V$\344\353\356\231\331"
 147      2EE281C8 
 147      B1015624 
 147      E4EBEE99 
 147      D9
 148 005b 0D8A9982 		.ascii	"\015\212\231\202\336\231\356\257\177\375\377\276\376"
ARM GAS  C:\Users\zozo\AppData\Local\Temp\ccb2ix8M.s 			page 11


 148      DE99EEAF 
 148      7FFDFFBE 
 148      FE
 149 0068 FA9B91C8 		.ascii	"\372\233\221\310\233\327\247\370\277\324B\310F\374\005"
 149      9BD7A7F8 
 149      BFD442C8 
 149      46FC05
 150 0077 03019AD3 		.ascii	"\003\001\232\323LHr\000\005\235\270\221\304\315\265"
 150      4C487200 
 150      059DB891 
 150      C4CDB5
 151 0086 001D95B2 		.ascii	"\000\035\225\262c\211l\326\247E\021\331\252\007`\335"
 151      63896CD6 
 151      A74511D9 
 151      AA0760DD 
 152 0096 04C86E2A 		.ascii	"\004\310n*\351\364\260\233\352p.\373\303\353)\035\243"
 152      E9F4B09B 
 152      EA702EFB 
 152      C3EB291D 
 152      A3
 153 00a7 90E328CD 		.ascii	"\220\343(\315\263\254<!\313\362\350\370\214-\315\346"
 153      B3AC3C21 
 153      CBF2E8F8 
 153      8C2DCDE6 
 154 00b7 C5A1092A 		.ascii	"\305\241\011*\026\205\223\260\222\240\315\230}\266\313"
 154      168593B0 
 154      92A0CD98 
 154      7DB6CB
 155 00c6 62B0A34D 		.ascii	"b\260\243M\210\030\203S`\000B\350,e\303\236\214\263"
 155      88188353 
 155      600042E8 
 155      2C65C39E 
 155      8CB3
 156 00d8 BD46E97D 		.ascii	"\275F\351}`\367\245)S%\226eE\262\234\342\312\316\272"
 156      60F7A529 
 156      53259665 
 156      45B29CE2 
 156      CACEBA
 157 00eb 6391F364 		.ascii	"c\221\363d\273kn\356=/\0058\015\022N\206\017\242`u\224"
 157      BB6B6EEE 
 157      3D2F0538 
 157      0D124E86 
 157      0FA26075 
 158 0100 E21594C0 		.ascii	"\342\025\224\300\262\263\213\034\362\334\\\245\347@"
 158      B2B38B1C 
 158      F2DC5CA5 
 158      E740
 159 010e E6C7BA65 		.ascii	"\346\307\272e\300\273\364\304K\251\001\033\311\210\215"
 159      C0BBF4C4 
 159      4BA9011B 
 159      C9888D
 160 011d 2E001BBD 		.ascii	".\000\033\275\231\217\204\340\255!\2245a\254\011gM\004"
 160      998F84E0 
 160      AD219435 
 160      61AC0967 
 160      4D04
 161 012f 6B225963 		.ascii	"k\"Ycc\015!n\224\210\336\017R\212?R/\310\265\035\373"
ARM GAS  C:\Users\zozo\AppData\Local\Temp\ccb2ix8M.s 			page 12


 161      630D216E 
 161      9488DE0F 
 161      528A3F52 
 161      2FC8B51D 
 162 0144 8149664B 		.ascii	"\201IfK\256!=p}4gRb\035(\370Y\333}9\360\011\365R\343"
 162      AE213D70 
 162      7D346752 
 162      621D28F8 
 162      59DB7D39 
 163 015d B0AB2659 		.ascii	"\260\253&Y\307|x\340\276\333\032\300\273\010{lHO\311"
 163      C77C78E0 
 163      BEDB1AC0 
 163      BB087B6C 
 163      484FC9
 164 0170 321F8682 		.ascii	"2\037\206\202d;xi\000\224B\024\374\001\350\001\234\201"
 164      643B7869 
 164      00944214 
 164      FC01E801 
 164      9C81
 165 0182 C380E3C9 		.ascii	"\303\200\343\311\3055{\214\314\334\204}e8\322\011)\216"
 165      C5357B8C 
 165      CCDC847D 
 165      6538D209 
 165      298E
 166 0194 C3B98138 		.ascii	"\303\271\20184U\333\227\025\274\3428\006\3165\235a\221"
 166      3455DB97 
 166      15BCE238 
 166      06CE359D 
 166      6191
 167 01a6 71BE590B 		.ascii	"q\276Y\013.\277\320\246iv\304M\245\217x\364:\037\034"
 167      2EBFD0A6 
 167      6976C44D 
 167      A58F78F4 
 167      3A1F1C
 168 01b9 6907613F 		.ascii	"i\007a?3df\366\0268\307\303\206\027\233\254N\362\333"
 168      336466F6 
 168      1638C7C3 
 168      86179BAC 
 168      4EF2DB
 169 01cc 11380B2B 		.ascii	"\0218\013+\240\034V\340^\260\010\021\341(T\340\016\341"
 169      A01C56E0 
 169      5EB00811 
 169      E12854E0 
 169      0EE1
 170 01de A3BF3BB8 		.ascii	"\243\277;\270cP\311\224ch$\222\035+\365@\2123\243\356"
 170      6350C994 
 170      63682492 
 170      1D2BF540 
 170      8A33A3EE 
 171 01f2 F634F3E2 		.ascii	"\3664\363\342j\352\345G&\351\023.\343b\231\247\311\302"
 171      6AEAE547 
 171      26E9132E 
 171      E36299A7 
 171      C9C2
 172 0204 6658A3D9 		.ascii	"fX\243\331\343\245\334\372<\003{\014\344\341qfW\337"
 172      E3A5DCFA 
 172      3C037B0C 
ARM GAS  C:\Users\zozo\AppData\Local\Temp\ccb2ix8M.s 			page 13


 172      E4E17166 
 172      57DF
 173 0216 33F12D76 		.ascii	"3\361-v\334\255\220\327\331\013\345\177\346\346Pj\020"
 173      DCAD90D7 
 173      D90BE57F 
 173      E6E6506A 
 173      10
 174 0227 9C173BFC 		.ascii	"\234\027;\374'F\250\012\242\310[\325^`\022+\270\304"
 174      2746A80A 
 174      A2C85BD5 
 174      5E60122B 
 174      B8C4
 175 0239 6A304C51 		.ascii	"j0LQ\375\024\352\352\004\312\236\320\264\273\356F\211"
 175      FD14EAEA 
 175      04CA9ED0 
 175      B4BBEE46 
 175      89
 176 024a 6555318F 		.ascii	"eU1\217\330i\367\272\000\304\252\271r\021V\241\301\301"
 176      D869F7BA 
 176      00C4AAB9 
 176      721156A1 
 176      C1C1
 177 025c FDEDD5D2 		.ascii	"\375\355\325\322\256\031L,\034\013\236\245b\005\315"
 177      AE194C2C 
 177      1C0B9EA5 
 177      6205CD
 178 026b C760FE78 		.ascii	"\307`\376xz\377\317\325\300\266,\207Y\205\300%\330\005"
 178      7AFFCFD5 
 178      C0B62C87 
 178      5985C025 
 178      D805
 179 027d 354C118E 		.ascii	"5L\021\216\335\177\232\331\244\2139#\347\310\256\274"
 179      DD7F9AD9 
 179      A48B3923 
 179      E7C8AEBC 
 180 028d 2C4CCC50 		.ascii	",L\314P\270\214\246(D\021\373\272\267\376<[ Gv|\311"
 180      B88CA628 
 180      4411FBBA 
 180      B7FE3C5B 
 180      2047767C 
 181 02a2 9CBA0231 		.ascii	"\234\272\0021L\033\201\253\260K\025\312\274`z0\227R"
 181      4C1B81AB 
 181      B04B15CA 
 181      BC607A30 
 181      9752
 182 02b4 AAC61A37 		.ascii	"\252\306\0327\010W\014\377//\350\255\362\376By\216\005"
 182      08570CFF 
 182      2F2FE8AD 
 182      F2FE4279 
 182      8E05
 183 02c6 E55DFB8F 		.ascii	"\345]\373\217\274=\351\223\262iM)\033?\224\205Q_\004"
 183      BC3DE993 
 183      B2694D29 
 183      1B3F9485 
 183      515F04
 184 02d9 D721669C 		.ascii	"\327!f\234'\010\324\302\032\256\250(F\0102.(h\276\202"
 184      2708D4C2 
ARM GAS  C:\Users\zozo\AppData\Local\Temp\ccb2ix8M.s 			page 14


 184      1AAEA828 
 184      4608322E 
 184      2868BE82 
 185 02ed 1BEF5470 		.ascii	"\033\357TpsA\005\267#\2754\014\352\230\002`\012n\011"
 185      734105B7 
 185      23BD340C 
 185      EA980260 
 185      0A6E09
 186 0300 05CE8CE5 		.ascii	"\005\316\214\345BA\000\212 }\240\347\021\304\271G\332"
 186      4241008A 
 186      207DA0E7 
 186      11C4B947 
 186      DA
 187 0311 F6955154 		.ascii	"\366\225QT\223\311\226\015\237\340)Y\217q\305\340\241"
 187      93C9960D 
 187      9FE02959 
 187      8F71C5E0 
 187      A1
 188 0322 B19746E0 		.ascii	"\261\227F\340\354\324\334\364\311\372*\003K\222)j\306"
 188      ECD4DCF4 
 188      C9FA2A03 
 188      4B92296A 
 188      C6
 189 0333 F4C079AD 		.ascii	"\364\300y\255\371\305\251\301<\207\261B\334\346g\214"
 189      F9C5A9C1 
 189      3C87B142 
 189      DCE6678C 
 190 0343 AA293EC5 		.ascii	"\252)>\305\317\305 V6,u\022\036\276\020\"\272\201t\200"
 190      CFC52056 
 190      362C7512 
 190      1EBE1022 
 190      BA817480 
 191 0357 BD293548 		.ascii	"\275)5H\220\200\317\303\3531\000;\006\364\224\2043\245"
 191      9080CFC3 
 191      EB31003B 
 191      06F49484 
 191      33A5
 192 0369 EA0F71AA 		.ascii	"\352\017q\252\236\025\012V\027F\233c\2315\256X\361\360"
 192      9E150A56 
 192      17469B63 
 192      9935AE58 
 192      F1F0
 193 037b D8AF3A5E 		.ascii	"\330\257:^\004dT\313\023\177\334\343t\230|\205\340\216"
 193      046454CB 
 193      137FDCE3 
 193      74987C85 
 193      E08E
 194 038d 56081A30 		.ascii	"V\010\0320>\374\344\363\322\322\256S\020\275O\016\274"
 194      3EFCE4F3 
 194      D2D2AE53 
 194      10BD4F0E 
 194      BC
 195 039e 008EC8C4 		.ascii	"\000\216\310\304`q\304o]\307nZ|\210F\015\321\344\217"
 195      6071C46F 
 195      5DC76E5A 
 195      7C88460D 
 195      D1E48F
ARM GAS  C:\Users\zozo\AppData\Local\Temp\ccb2ix8M.s 			page 15


 196 03b1 68E95011 		.ascii	"h\351P\021\267JJDm1\346\024^\021\210\013\231\255\351"
 196      B74A4A44 
 196      6D31E614 
 196      5E11880B 
 196      99ADE9
 197 03c4 7E2A9A35 		.ascii	"~*\2325\304]Q\216~\312\257\254\340\2412\311\262\033"
 197      C45D518E 
 197      7ECAAFAC 
 197      E0A132C9 
 197      B21B
 198 03d6 AB7D8BAA 		.ascii	"\253}\213\252\253K\3235=\374\232\037oc\241\012M\037"
 198      AB4BD335 
 198      3DFC9A1F 
 198      6F63A10A 
 198      4D1F
 199 03e8 3A5965F5 		.ascii	":Ye\365A[5\350=\246KE\264\364\251\010\307\353\341\\"
 199      415B35E8 
 199      3DA64B45 
 199      B4F4A908 
 199      C7EBE15C 
 200 03fc 5135CFA9 		.ascii	"Q5\317\251\010\347\221\2023~\256\265i\210v?\304\344"
 200      08E79182 
 200      337EAEB5 
 200      6988763F 
 200      C4E4
 201 040e 8F039F8B 		.ascii	"\217\003\237\213\355\010\301)\347\312\313\033M\214\262"
 201      ED08C129 
 201      E7CACB1B 
 201      4D8CB2
 202 041d 58762914 		.ascii	"Xv)\024\355\244,\026\007'o\242&H\205FB\007B;9\264\013"
 202      EDA42C16 
 202      07276FA2 
 202      26488546 
 202      4207423B 
 203 0434 A12C573C 		.ascii	"\241,W<J\236\204\012b~\327\240Gb\323\015X\207\356\213"
 203      4A9E840A 
 203      627ED7A0 
 203      4762D30D 
 203      5887EE8B 
 204 0448 35734111 		.ascii	"5sA\021\255-g{s9\333\233\313-\201n\\\256\207/\327\313"
 204      AD2D677B 
 204      7339DB9B 
 204      CB2D816E 
 204      5CAE872F 
 205 045e 4F40A870 		.ascii	"O@\250p\341\225\342B\030\316\350\032*.\266r\275\311"
 205      E195E242 
 205      18CEE81A 
 205      2A2EB672 
 205      BDC9
 206 0470 2AB3E8F9 		.ascii	"*\263\350\371\325\030\237\344>Mr\277\"yZ\221\034.\010"
 206      D5189FE4 
 206      3E4D72BF 
 206      22795A91 
 206      1C2E08
 207 0483 A51DD31D 		.ascii	"\245\035\323\035\224K\256\305\334vr\315\232[\021h\206"
 207      944BAEC5 
 207      DC7672CD 
ARM GAS  C:\Users\zozo\AppData\Local\Temp\ccb2ix8M.s 			page 16


 207      9A5B1168 
 207      86
 208 0494 36BF3454 		.ascii	"6\2774T\367\233\271M8\201\007\363\334\322$\330\336*"
 208      F79BB94D 
 208      388107F3 
 208      DCD224D8 
 208      DE2A
 209 04a6 6109B834 		.ascii	"a\011\27047\036r7\"\204\033\327\277\020kD\276+\316\003"
 209      371E7237 
 209      22841BD7 
 209      BF106B44 
 209      BE2BCE03 
 210 04ba F3E26C13 		.ascii	"\363\342l\023\366\375\327j{x^\032\026\023x4O\320\202"
 210      F6FDD76A 
 210      7B785E1A 
 210      16137834 
 210      4FD082
 211 04cd 5174F3E5 		.ascii	"Qt\363\345m<\227F\037/W\336\300\307\367\3455\230\304"
 211      6D3C9746 
 211      1F2F57DE 
 211      C0C7F7E5 
 211      3598C4
 212 04e0 494B518E 		.ascii	"IKQ\216\311\315\223w*\003}\2714\250\345\322c\221\343"
 212      C9CD9377 
 212      2A037DB9 
 212      34A8E5D2 
 212      6391E3
 213 04f3 DA0BCA14 		.ascii	"\332\013\312\024M`HM\360!\235B\254\350\036X-\316\235"
 213      4D60484D 
 213      F0219D42 
 213      ACE81E58 
 213      2DCE9D
 214 0506 0A2CAFB8 		.ascii	"\012,\257\270\322\034\344\003>\321\200O\005pn\344\217"
 214      D21CE403 
 214      3ED1804F 
 214      05706EE4 
 214      8F
 215 0517 9781CAA1 		.ascii	"\227\201\312\241\261\022x\246&\374\260\212\314\310\272"
 215      B11278A6 
 215      26FCB08A 
 215      CCC8BA
 216 0526 D06D1522 		.ascii	"\320m\025\"\355\012sp\330;\356\367]\360\\c\016\013f"
 216      ED0A7370 
 216      D83BEEF7 
 216      5DF05C63 
 216      0E0B66
 217 0539 63F6EF87 		.ascii	"c\366\357\207\370\306\232\034\270\261/T\225/Td\377\215"
 217      F8C69A1C 
 217      B8B12F54 
 217      952F5464 
 217      FF8D
 218 054b FEEA2021 		.ascii	"\376\352 !SE^\2348\350_aF4\344K\201<\272\267\240N=\333"
 218      53455E9C 
 218      38E85F61 
 218      4634E44B 
 218      813CBAB7 
 219 0563 2ECCF051 		.ascii	".\314\360QU\247\006-\033I+\023\337.{ThaA\335X\260\017"
ARM GAS  C:\Users\zozo\AppData\Local\Temp\ccb2ix8M.s 			page 17


 219      55A7062D 
 219      1B492B13 
 219      DF2E7B54 
 219      686141DD 
 220 057a 3AA641C7 		.ascii	":\246A\307\005t\266m\337\250E\201\"sB\025\372Re\026"
 220      0574B66D 
 220      DFA84581 
 220      22734215 
 220      FA526516 
 221 058e 9DC8B38B 		.ascii	"\235\310\263\213:&\247+\314\207\205\031\247$\037\323"
 221      3A26A72B 
 221      CC878519 
 221      A7241FD3 
 222 059e A331FF66 		.ascii	"\2431\377f\207]\365\265EC\324\244\355\3552\013_U\304"
 222      875DF5B5 
 222      4543D4A4 
 222      EDED320B 
 222      5F55C4
 223 05b1 B3A397BF 		.ascii	"\263\243\227\277\363\021&5\302\224Pu \177f@\257\272"
 223      F3112635 
 223      C2945075 
 223      207F6640 
 223      AFBA
 224 05c3 8A6FDF69 		.ascii	"\212o\337i\034\354\203TGg\030\377\300\231\377.\211\232"
 224      1CEC8354 
 224      476718FF 
 224      C099FF2E 
 224      899A
 225 05d5 C0AF3D02 		.ascii	"\300\257=\002^|\227x\351Rn\331\267\240\245\204\226\257"
 225      5E7C9778 
 225      E9526ED9 
 225      B7A0A584 
 225      96AF
 226 05e7 144B2724 		.ascii	"\024K'$;\306\342\324\257C7\2764\322\242\220\264j\355"
 226      3BC6E2D4 
 226      AF4337BE 
 226      34D2A290 
 226      B46AED
 227 05fa E68D89DF 		.ascii	"\346\215\211\337&\356\370*)\361\353\370\270\355\337"
 227      26EEF82A 
 227      29F1EBF8 
 227      B8EDDF
 228 0609 EF4848DC 		.ascii	"\357HH\334\274)n\373\372\330\315\011?l\331\232\224\224"
 228      BC296EFB 
 228      FAD8CD09 
 228      3F6CD99A 
 228      9494
 229 061b B8233E61 		.ascii	"\270#>a\3137k\023\010l5\257\337\024\367\331\206\350"
 229      CB376B13 
 229      086C35AF 
 229      DF14F7D9 
 229      86E8
 230 062d E8E8ADC4 		.ascii	"\350\350\255\304\212}\361\333\022\267\355LL\212O\242"
 230      8A7DF1DB 
 230      12B7ED4C 
 230      4C8A4FA2 
 231 063d DB76FE0B 		.ascii	"\333v\376\013W\346\014\356"
ARM GAS  C:\Users\zozo\AppData\Local\Temp\ccb2ix8M.s 			page 18


 231      57E60CEE 
 232              		.text
 233              		.section	.gnu.lto_.symbol_nodes.d9226e76,"",%progbits
 234 0000 789C55C8 		.ascii	"x\234U\310\273\015\302@\020\204\341\331]\316w~\000%"
 234      BB0DC240 
 234      1084E1D9 
 234      5DCE777E 
 234      0025
 235 0012 500AA58D 		.ascii	"P\012\245\215\003\013\020\021\0221\310\201+\261\210"
 235      030B1011 
 235      1231C881 
 235      2BB188
 236 0021 89280090 		.ascii	"\211(\000\220Cj@\370!\244\363$\277\2761\000N0M\023\002"
 236      436A40F8 
 236      21A4F324 
 236      BFBE3100 
 236      4E304D13 
 237 0036 A73B40E2 		.ascii	"\247;@\342R\037\012\250R\346\207\243\316\017O\373\037"
 237      521F0AA8 
 237      52E687A3 
 237      CE0F4FFB 
 237      1F
 238 0047 D73AC005 		.ascii	"\327:\300\005\324J\223\224\213\351FY\006\310\232.\346"
 238      D44A9394 
 238      8BE94659 
 238      06C89A2E 
 238      E6
 239 0058 8A49CC25 		.ascii	"\212I\314%}\314\202!f\3164f\306,\242\211C\363\374\212"
 239      7DCC8221 
 239      66CE3466 
 239      C62CA289 
 239      43F3FC8A 
 240 006c 698EDBD8 		.ascii	"i\216\333\330\014\335\330\024\325kh@3\326\243\333\177"
 240      0CDDD814 
 240      D56B6840 
 240      33D6A3DB 
 240      7F
 241 007d 36A609AA 		.ascii	"6\246\011\252c_\023\264\273\307\326L\321\236\007\003"
 241      635F13B4 
 241      BBC7D64C 
 241      D19E0703 
 242 008d EFBEF801 		.ascii	"\357\276\370\001\305\272D\324"
 242      C5BA44D4 
 243              		.text
 244              		.section	.gnu.lto_.refs.d9226e76,"",%progbits
 245 0000 789C6366 		.ascii	"x\234cf``\340d\200\000&f\006\026v\006\026\016\006\000"
 245      6060E064 
 245      80002666 
 245      06167606 
 245      160E0600 
 246 0014 016E0029 		.ascii	"\001n\000)"
 247              		.text
 248              		.section	.gnu.lto_.decls.d9226e76,"",%progbits
 249 0000 789CAD57 		.ascii	"x\234\255WkP\024W\026\356\333=\017f\030\007WS&Ke\313"
 249      6B501457 
 249      16EEDB3D 
 249      0F661807 
ARM GAS  C:\Users\zozo\AppData\Local\Temp\ccb2ix8M.s 			page 19


 249      5753264B 
 250 0016 51B3ACEE 		.ascii	"Q\263\254\356&l|\254k\262?\222-\362pS\233\325Z+\265"
 250      266C7CAC 
 250      6BB23F92 
 250      2DF27053 
 250      9BD55A2B 
 251 002b 950D5566 		.ascii	"\225\015Uf\034\0322\025\234\301\231\241\262\354\237"
 251      1C1A3215 
 251      9CC199A1 
 251      B2EC9F
 252 003a 6D187510 		.ascii	"m\030u\020\214\002\361\201\012\001\025\024P\001\345"
 252      8C02F181 
 252      0A011514 
 252      5001E5
 253 0049 11C03120 		.ascii	"\021\3001 \032E\011\002\206\200D\221A\214\306\000\012"
 253      1A450902 
 253      86804491 
 253      418CC600 
 253      0A
 254 005a 8A08A8CC 		.ascii	"\212\010\250\314\236{o\367\314\264\013&?\266\213C\367"
 254      9E7B6FF7 
 254      CCB40B26 
 254      3FB68B43 
 254      F7
 255 006b B97D1EDF 		.ascii	"\271}\036\337w\316}\364p\014\303(X\206\361\302u\344"
 255      77CE7DF4 
 255      700CC328 
 255      5886F1C2 
 255      75E4
 256 007d 170CD303 		.ascii	"\027\014\323\003\317J\030[\011\002\217L1H\005C\257`"
 256      CF4A185B 
 256      09028F4C 
 256      31480543 
 256      AF60
 257 008f 902A90D3 		.ascii	"\220*\220\323 m \235 \267@\006@\206AFA\036\201L`cD\376"
 257      206D209D 
 257      20B74006 
 257      40864146 
 257      411E814C 
 258 00a7 98E71123 		.ascii	"\230\347\021#\273\260\277B\214?\007\336\315\006\231"
 258      BBB0BF42 
 258      8C3F07DE 
 258      CD0699
 259 00b6 23BE43E2 		.ascii	"#\276C\342\373'/\234O-\372\350At +@\334 s\301\251W\264"
 259      FB272F9C 
 259      4F2DFAE8 
 259      4174202B 
 259      40DC2073 
 260 00ce 6345DB5B 		.ascii	"cE\333[\223\304\300xgHy\003r\317\003\251\004\375\005"
 260      93C4C078 
 260      67487903 
 260      72CF03A9 
 260      04FD05
 261 00e1 44798E80 		.ascii	"Dy\216\200\374\032\236\307\341\376\033\270\207\201\314"
 261      FC1A9EC7 
 261      E1FE1BB8 
 261      8781CC
ARM GAS  C:\Users\zozo\AppData\Local\Temp\ccb2ix8M.s 			page 20


 262 00f0 07B90BFA 		.ascii	"\007\271\013\372\002D\353\321'\306T\213q1\360\011\221"
 262      0244EBD1 
 262      27C6548B 
 262      7131F009 
 262      91
 263 0101 FBA8588B 		.ascii	"\373\250X\213\201I0\340z=/bx\011|\336\021y\030@\226"
 263      814930E0 
 263      7A3D2F62 
 263      78097CDE 
 263      11791840 
 264 0116 83CC7AA2 		.ascii	"\203\314z\242&j\270OC~\316\277\207\347\227Af\3421\220"
 264      266AB84F 
 264      437ECEBF 
 264      87E79741 
 264      66E23190 
 265 012a 85208B40 		.ascii	"\205 \213@\026\203\324\301\373W\340\276\014\344U\220"
 265      1683D4C1 
 265      FB57E0BE 
 265      0CE45590 
 266 013a A501DC70 		.ascii	"\245\001\334p]\264\360\034\204h\355;\031\177\017\253"
 266      5DB4F01C 
 266      8468ED3B 
 266      197F0FAB 
 267 014a 98C9FB34 		.ascii	"\230\311\3734\304\242\306k\243\367t?\260H\257\235\216"
 267      C4A2C66B 
 267      A3F7743F 
 267      B048AF9D 
 267      8E
 268 015b D5DD1DDF 		.ascii	"\325\335\035\337\017s\240\352\264,V\263\357\336vk8\026"
 268      0F73A0EA 
 268      B42C56B3 
 268      EFDE766B 
 268      3816
 269 016d E1E7FD99 		.ascii	"\341\347\375\231=m\332\027\213\004AH\026\352\032\220"
 269      3D6DDA17 
 269      8B044148 
 269      16EA1A90 
 270 017d 3F44E281 		.ascii	"?D\342\201\343\233\325\340c\320\022ug\337hy\020Q\275"
 270      E39BD5E0 
 270      63D01275 
 270      67DF6879 
 270      1051BD
 271 0190 5E0E06D8 		.ascii	"^\016\006\330\207\275\305\007U(L\233\007\256\203\005"
 271      87BDC507 
 271      55284C9B 
 271      07AE8305 
 272 01a0 77BF795E 		.ascii	"w\277y^\020\024\250\030iQ!\342P\021z\021\203\303\276"
 272      1014A818 
 272      695121E2 
 272      50117A11 
 272      83C3BE
 273 01b3 F84A1684 		.ascii	"\370J\026\204$Ap\012\312\002=\203\016\242PT\200B\031"
 273      2441700A 
 273      CA023D83 
 273      0EA25054 
 273      804219
 274 01c6 74048581 		.ascii	"t\004\205\201\005\261E\207`\3600\036\204\010\220\255"
ARM GAS  C:\Users\zozo\AppData\Local\Temp\ccb2ix8M.s 			page 21


 274      05B14587 
 274      60F0301E 
 274      840890AD 
 275 01d6 BA78B829 		.ascii	"\272x\270)\230\3407\340\3445\031\015\231*\202_\201\325"
 275      98E037E0 
 275      E435190D 
 275      992A825F 
 275      81D5
 276 01e8 9E4B1D6E 		.ascii	"\236K\035n5\267\004\005\302\234Cav\357\031\313\323\020"
 276      35B70405 
 276      C29C4361 
 276      76EF19CB 
 276      D310
 277 01fa 15AF8A10 		.ascii	"\025\257\212\020\014\364x}F\253V\004\232;\256A\250\002"
 277      0CF4787D 
 277      46AB5604 
 277      9A3BAE41 
 277      A802
 278 020c 401EF583 		.ascii	"@\036\365\203\234\023\0102\315)h\032\000d\011\340)\305"
 278      9C130832 
 278      CD29681A 
 278      006409E0 
 278      29C5
 279 021e 78CA01E4 		.ascii	"x\312\001\344\034\021\3441\030,\303\203\025\004d\345"
 279      1C11E431 
 279      182CC383 
 279      150464E5 
 280 022e D84889EA 		.ascii	"\330H\211\352\331\355\002\276\234\302t\026\255\234\345"
 280      D9ED02BE 
 280      9CC27416 
 280      AD9CE5
 281 023d 23C7A04A 		.ascii	"#\307\240J\364,\374\377@A\253Yv\314\223\257\347\376"
 281      F42CFCFF 
 281      4041AB59 
 281      76CC93AF 
 281      E7FE
 282 024f 442067B5 		.ascii	"D g\265\237\333\310\032>\027\352J\007\263\234}\346t"
 282      9FDBC81A 
 282      3E17EA4A 
 282      07B39C7D 
 282      E674
 283 0261 A7B04DF0 		.ascii	"\247\260M\360x\275\263\211\017\372\302\207\214\301\317"
 283      78BDB389 
 283      0FFAC287 
 283      8CC1CF
 284 0270 041AAA42 		.ascii	"\004\032\252B\006pt\0378\252\344\342e\264\227\313i/"
 284      0670741F 
 284      38AAE4E2 
 284      65B497CB 
 284      692F
 285 0282 F7D36E3E 		.ascii	"\367\323n>T\326\243C\332\260\311i\235\000Z\313EZ50x"
 285      54D6A343 
 285      DAB0C969 
 285      9D005ACB 
 285      455A3530 
 286 0297 1C067181 		.ascii	"\034\006q\201Z\036\365\006\013\010\271\241D\325\376"
 286      5A1EF506 
ARM GAS  C:\Users\zozo\AppData\Local\Temp\ccb2ix8M.s 			page 22


 286      0B08B9A1 
 286      44D5FE
 287 02a6 122DD7FA 		.ascii	"\022-\327\372\246E\377\330\336;:\274\353\020\233\017"
 287      A645FFD8 
 287      DE3B3ABC 
 287      EB109B0F 
 288 02b6 483F8EEC 		.ascii	"H?\216\354k-\242c+t\350KD\306\036\345e\225k\247,N\035"
 288      6B2DA263 
 288      2B74E84B 
 288      44C61EE5 
 288      65956BA7 
 289 02cd 294E2D12 		.ascii	")N-\022\253\343\252:]\037\314=B\204\232\3139pX\305m"
 289      ABE3AA3A 
 289      5D1FCC3D 
 289      42849ACB 
 289      397058C5 
 290 02e2 A4D3B3FD 		.ascii	"\244\323\263\375x\322\365`\010\215\352I)0\363\302:\301"
 290      78D2F560 
 290      088DEA49 
 290      2930F3C2 
 290      3AC1
 291 02f4 57BD6EFD 		.ascii	"W\275n\375.!7Q\230\360z\021\011\212NJ\240\321)\010\216"
 291      2E213751 
 291      98F07A11 
 291      098A4E4A 
 291      A0D12908 
 292 0309 555AC0D3 		.ascii	"UZ\300\323\244\2007\0067|\316q\237\322\3209\015\205"
 292      A4803706 
 292      377CCE71 
 292      9FD2D039 
 292      0D85
 293 031b FD2C9749 		.ascii	"\375,\227I\225\206C\331\037r\271\344Y\321\233UZ\031"
 293      958643D9 
 293      1F72B9E4 
 293      59D19B55 
 293      5A19
 294 032d 82C24243 		.ascii	"\202\302BC\311\224I\026^G\215@\365\254\030\212^\231"
 294      C9944916 
 294      5E478D40 
 294      F5AC188A 
 294      5E99
 295 033f 303EFA1A 		.ascii	"0>\372\032~\001\217A\344N\012=\230!p\3171\350\305P\264"
 295      7E018F41 
 295      E44E0A3D 
 295      982170CF 
 295      31E8C550 
 296 0354 00AADC00 		.ascii	"\000\252\334\000U\306\276\244\314\347\201\3759`\017"
 296      55C6BEA4 
 296      CCE781FD 
 296      39600F
 297 0363 D96E7ED9 		.ascii	"\331n~\331/\260dz\257\304\352\247\343CMz2\275\265X\275"
 297      2FB0647A 
 297      AFC4EAA7 
 297      E3434D7A 
 297      32BDB558 
 298 0378 D4B0F30F 		.ascii	"\324\260\363\017D\323\220\271\177\177\343qN\233\214"
 298      44D390B9 
ARM GAS  C:\Users\zozo\AppData\Local\Temp\ccb2ix8M.s 			page 23


 298      7F7FE371 
 298      4E9B8C
 299 0387 EB48BB08 		.ascii	"\353H\273\010/|}dP3df\320\374Pt\201\206\276\225R\270"
 299      2F7C7D64 
 299      50336466 
 299      D0FC5074 
 299      8186BE95 
 300 039d 8B9D9146 		.ascii	"\213\235\221F\314\005\301\200H\376\257\301\274\211\230"
 300      CC05C180 
 300      48FEAFC1 
 300      BC8998
 301 03ac B7A01992 		.ascii	"\267\240\031\222\023\266>\275\2479\235\233\235\317f"
 301      13B63EBD 
 301      A7399D9B 
 301      9DCF66
 302 03bb 0B9906F2 		.ascii	"\013\231\006\362\016\306\272z\352[\024\244\233\255h"
 302      0EC6BA7A 
 302      EA5B14A4 
 302      9BAD68
 303 03ca 369D5D5D 		.ascii	"6\235]]c\303A\270\011g\240\272\027q\323`p\337\330\216"
 303      63C341B8 
 303      0967A0BA 
 303      1771D360 
 303      70DFD88E 
 304 03de D160D287 		.ascii	"\321`\322\207\334\302|U\201P\347\365\276F&\360W\276"
 304      DCC27C55 
 304      8150E7F5 
 304      BE4626F0 
 304      57BE
 305 03f0 167C835B 		.ascii	"\026|\203[\200U\022\010\006\332H\027\266\335\252v\262"
 305      80551208 
 305      06DA4817 
 305      B6DDAA76 
 305      B2
 306 0401 5C292DFC 		.ascii	"\\)-\374\323\021\264O\206\240CD\32044\334\211\021\344"
 306      D311B44F 
 306      86A04344 
 306      D03434DC 
 306      8911E4
 307 0414 967ABACF 		.ascii	"\226z\272\317\362uI\302#\2745\021\014\337\3720\\\302"
 307      F27549C2 
 307      23BC3511 
 307      0CDFFA30 
 307      5CC2
 308 0426 18B0DA2E 		.ascii	"\030\260\332.b\350$\030N\344\235\032\324p'(\206\232"
 308      62E82418 
 308      4EE49D1A 
 308      D4702728 
 308      869A
 309 0438 DB571EE8 		.ascii	"\333W\036\350\271\257\2502\260\257z@7\273\011\000\005"
 309      B9AFA832 
 309      B0AF7A40 
 309      37BB0900 
 309      05
 310 0449 912C0FF7 		.ascii	"\221,\017\367\346\357\347\010\230+\"\230m\007\267\036"
 310      E6EFE708 
 310      982B2298 
ARM GAS  C:\Users\zozo\AppData\Local\Temp\ccb2ix8M.s 			page 24


 310      6D07B71E 
 311 0459 9B86C15C 		.ascii	"\233\206\301\\\206\260]\"\230\226\373\205IZ<\370\035"
 311      86B05D22 
 311      9896FB85 
 311      495A3CF8 
 311      1D
 312 046a CC137495 		.ascii	"\314\023t\225.\202\247/\226w\264\310C\355\036\234\315"
 312      2E82A72F 
 312      9677B4C8 
 312      43ED1E9C 
 312      CD
 313 047b 3EA29416 		.ascii	">\242\224\026P\017\035{x\276\243\"8p\001\301+q\001\241"
 313      500F1D7B 
 313      78BEA322 
 313      387001C1 
 313      2B7101A1 
 314 048f 6E4CAA97 		.ascii	"nL\252\227\254\241k\322\032\352\3159[\241\344\232)\211"
 314      ACA16BD2 
 314      1AEACD39 
 314      5BA1E49A 
 314      2989
 315 04a1 B4A22B15 		.ascii	"\264\242+\025*\256\235*g\222\312\257h\271\253T\311Z"
 315      2AAE9D2A 
 315      6792CAAF 
 315      68B9AB54 
 315      C95A
 316 04b3 EFE92038 		.ascii	"\357\351 8oH\013\252\355Nu\212\006\217|\217\221\337"
 316      6F480BAA 
 316      ED4E758A 
 316      068F7C8F 
 316      91DF
 317 04c5 A4D92726 		.ascii	"\244\331'&\012k\324P[O\332`\343\241\013\334.a/Ye\013"
 317      0A6BD450 
 317      5B4FDA60 
 317      E3A10BDC 
 317      2E612F59 
 318 04db 05A18BC5 		.ascii	"\005\241\213\305\231\321u_\205\177\300`\256K\013\355"
 318      99D1755F 
 318      857FC060 
 318      AE4B0BED 
 319 04eb 16DDA9F2 		.ascii	"\026\335\251\362~\274\035L\010\025\373\210\367\356\332"
 319      7EBC1D4C 
 319      0815FB88 
 319      F7EEDA
 320 04fa D1A09F72 		.ascii	"\321\240\237rG\350#l~\224\330|\326\343\331\255\344\276"
 320      47E8236C 
 320      7E94D87C 
 320      D6E3D9AD 
 320      E4BE
 321 050c E508E61D 		.ascii	"\345\010\346\0355)g\225\030\214PZ{\307\"aA\304\011\365"
 321      35296795 
 321      188C505A 
 321      7BC72261 
 321      41C409F5 
 322 0520 07EC97FD 		.ascii	"\007\354\227\375\022\212\001\202b\373\036gW\010\227"
 322      128A0182 
 322      62FB1E67 
ARM GAS  C:\Users\zozo\AppData\Local\Temp\ccb2ix8M.s 			page 25


 322      570897
 323 052f A8C041D8 		.ascii	"\250\300A\330\266\376\013\331:\337y5|\365W\370\274\032"
 323      B6FE0BD9 
 323      3ADF7935 
 323      7CF557F8 
 323      BC1A
 324 0541 0474B77F 		.ascii	"\004t\267\177\356Qpg\222\243\000\037\256\273:\005D\270"
 324      EE517067 
 324      92A3001F 
 324      AEBB3A05 
 324      44B8
 325 0553 56F8B8E6 		.ascii	"V\370\270\346\247v\337\2275\017'\362\223\275K\310\016"
 325      A776DF97 
 325      350F27F2 
 325      93BD4BC8 
 325      0E
 326 0564 4964DB8F 		.ascii	"Id\333\217\325\327(\270\024\202\023U\017T\273XBv\260"
 326      D5D728B8 
 326      14821355 
 326      0F54BB58 
 326      4276B0
 327 0577 F6CEFE75 		.ascii	"\366\316\376u\351\3164\351t\000/t/\200\355=\211\355"
 327      E9CE34E9 
 327      74002F74 
 327      2F80ED3D 
 327      89ED
 328 0589 30613B19 		.ascii	"0a;\031\216\262SgON}D\215\020\030\367%\030\375)]_\006"
 328      8EB25367 
 328      4F4E7D44 
 328      8D1018F7 
 328      2518FD29 
 329 05a0 717B288C 		.ascii	"q{(\214\244l\347\025-\201\341\031=\274\321 \256o\360"
 329      A46CE715 
 329      2D81E119 
 329      3DBCD120 
 329      AE6FF0
 330 05b3 400F0220 		.ascii	"@\017\002 <\220 \214N\011\2419}K\"\027\010\241BV\212"
 330      3C90208C 
 330      4E09A139 
 330      7D4B2217 
 330      08A14256 
 331 05c8 7182614C 		.ascii	"q\202aL\302P[\227\330\244\341J)\006\327\325\213?jh)"
 331      C2505B97 
 331      D8A4E14A 
 331      2906D7D5 
 331      8B3F6A68 
 332 05dd 32CBDC6B 		.ascii	"2\313\334k\002J\001^\350a\000\216\207\022\216G\004\307"
 332      024A015E 
 332      E861008E 
 332      87128E47 
 332      04C7
 333 05ef 775BC69B 		.ascii	"w[\306\233\264\\?\215R\345j-T\212\005-\271\263,`\372"
 333      B45C3F8D 
 333      52E56A2D 
 333      548A052D 
 333      B9B32C60 
 334 0604 60368F03 		.ascii	"`6\217\003\242<\226\242L\220(\236s\275y\210\033\247"
ARM GAS  C:\Users\zozo\AppData\Local\Temp\ccb2ix8M.s 			page 26


 334      A23C96A2 
 334      4C90289E 
 334      73BD7988 
 334      1BA7
 335 0616 5136170D 		.ascii	"Q6\027\015\016($,\345\201X\360~\343\015\210\342\225"
 335      0E28242C 
 335      E58158F0 
 335      7EE30D88 
 335      E295
 336 0628 A2C03185 		.ascii	"\242\3001\205\267\256\007\335\365j\262\327\277\214\343"
 336      B7AE07DD 
 336      F56AB2D7 
 336      BF8CE3
 337 0637 646CA8AA 		.ascii	"dl\250\252\242{\275\012\253\255\335\315=\210KUR\276"
 337      A27BBD0A 
 337      ABADDDCD 
 337      3D884B55 
 337      52BE
 338 0649 DBF6E491 		.ascii	"\333\366\344\221\303\016\266GZ\216\264\276\316\255:"
 338      C30EB647 
 338      5A8EB4BE 
 338      CEAD3A
 339 0658 2E83BE6E 		.ascii	".\203\276n9\227x9\204\333M\024E\337\345\2112\015\232"
 339      39977839 
 339      84DB4D14 
 339      45DFE589 
 339      320D9A
 340 066b 39376C6E 		.ascii	"97ln:\335\353\327\277\276\216A\211l(J\002Y\317\302\232"
 340      3ADDEBD7 
 340      BFBE8E41 
 340      896C284A 
 340      0259CFC2 
 341 0680 74B133F1 		.ascii	"t\2613\361n\2076\261a(\205\235\213\222\331\271\004X"
 341      6E8736B1 
 341      6128859D 
 341      8B92D9B9 
 341      0458
 342 0692 2ECCEEC1 		.ascii	".\314\356\301\254S\023\357':\205\315\277$+t#\313\021"
 342      AC5313EF 
 342      273A85CD 
 342      BF242B74 
 342      23CB11
 343 06a5 73DFB7D9 		.ascii	"s\337\267\331|\334\233\022\334!\362Y\340\031u\341\317"
 343      7CDC9B12 
 343      DC21F259 
 343      E01975E1 
 343      CF
 344 06b6 0230211B 		.ascii	"\0020!\033\250\377\034\304\261<c\256\363:!s\021\336"
 344      A8FF1CC4 
 344      B13C63AE 
 344      F33A2173 
 344      11DE
 345 06c8 A1368881 		.ascii	"\2416\210\201|\213\206\004\372m(\245\323\364\370\366"
 345      7C8B8604 
 345      FA6D28A5 
 345      D3F4F8F6 
 346 06d8 7596CB21 		.ascii	"u\226\313!\014\330\374\346K\271z\0246\223\304\177xS"
ARM GAS  C:\Users\zozo\AppData\Local\Temp\ccb2ix8M.s 			page 27


 346      0CD8FCE6 
 346      4BB97A14 
 346      3693C47F 
 346      7853
 347 06ea 0BF13F05 		.ascii	"\013\361?\005\317T\210@S\220t\344\232\202\"\332\014"
 347      CF548840 
 347      539074E4 
 347      9A8222DA 
 347      0C
 348 06fb CCA66209 		.ascii	"\314\246b\011\351\2666\336HU\314\024\235\363\236\342"
 348      E9B636DE 
 348      4855CC14 
 348      9DF39EE2 
 349 070b CC3CE959 		.ascii	"\314<\351YZ{h\223\2064\355C\262?o\030\334\244%M\323"
 349      5A7B6893 
 349      8634ED43 
 349      B23F6F18 
 349      DCA4254D 
 350 0720 613525F5 		.ascii	"a5%\365\250W=\365\221\234\316\212G\362\002\262?\024"
 350      A8573DF5 
 350      919CCE8A 
 350      47F202B2 
 350      3F14
 351 0732 EFBCD5A6 		.ascii	"\357\274\325\246\360\237\310\353\010\313\255\000\"\215"
 351      F09FC8EB 
 351      08CBAD00 
 351      228D
 352 0740 C5D619EC 		.ascii	"\305\326\031\354\014\311\207|\233\267\266\344\207\004"
 352      0CC9877C 
 352      9BB7B6E4 
 352      8704
 353 074e 5A6F799A 		.ascii	"Zoy\232\365mwF-\342\016\323\371\321s\263\241Q\317\271"
 353      F56D7746 
 353      2DE20ED3 
 353      F9D173B3 
 353      A151CFB9 
 354 0762 A952BE65 		.ascii	"\251R\276e\273\033\177\362\257\320\011\036\267@Vbc\343"
 354      BB1B7FF2 
 354      AFD0091E 
 354      B7405662 
 354      63E3
 355 0774 E1E7C817 		.ascii	"\341\347\310\027<\234l\240\336=s/\027--\027\222s\247"
 355      3C9C6CA0 
 355      DE3D732F 
 355      172D2D17 
 355      9273A7
 356 0787 9324B804 		.ascii	"\223$\270\004; \021\224\001\355d\011\364/\012\352_\241"
 356      3B201194 
 356      01ED6409 
 356      F42F0AEA 
 356      5FA1
 357 0799 31841334 		.ascii	"1\204\0234F\307\327'\362\270'\234v\311\235rn\214\344"
 357      46C7D727 
 357      F2B8279C 
 357      76C99D72 
 357      6E8CE4
 358 07ac 48713F63 		.ascii	"Hq?cg@\363Q&\273\024\375.\024\355f\227\222\363\363@"
ARM GAS  C:\Users\zozo\AppData\Local\Temp\ccb2ix8M.s 			page 28


 358      6740F351 
 358      26BB14FD 
 358      2E14ED66 
 358      9792F3F3 
 359 07c1 C9986ADE 		.ascii	"\311\230j\336^\241%\327\363\330\265J\310\024\326"
 359      5EA125D7 
 359      F3D8B54A 
 359      C814D6
 360 07d0 E385446C 		.ascii	"\343\205Dl\267\321\346\007\020\336\216\227\002\332\003"
 360      B7D1E607 
 360      10DE8E97 
 360      02DA03
 361 07df 9E288B9D 		.ascii	"\236(\213\235\007\336\311\031\225}J\256\225\262\274"
 361      07DEC919 
 361      957D4AAE 
 361      95B2BC
 362 07ee B87D2827 		.ascii	"\270}('\010w\302\371\363\276\334a\332\245\216\3760\244"
 362      0877C2F9 
 362      F3BEDC61 
 362      DAA58EFE 
 362      30A4
 363 0800 A7DFC593 		.ascii	"\247\337\305\2238\345\262\377\353DO\214\314\356\027"
 363      38E5B2FF 
 363      EB444F8C 
 363      CCEE17
 364 080f F08991C3 		.ascii	"\360\211\221\303jQ6\353;1>g\375\237\306U\347\216^cu"
 364      6A5136EB 
 364      3B313E67 
 364      FD9FC655 
 364      E78E5E63 
 365 0824 29FEB383 		.ascii	")\376\263\203\030\373\347\305^VG\366\005\270\343\217"
 365      18FBE7C5 
 365      5E5647F6 
 365      05B8E38F 
 366 0834 9CEEF66E 		.ascii	"\234\356\366n\275\314\032\037\253~\353}\242\365>b}\250"
 366      BDCC1A1F 
 366      AB7EEB7D 
 366      A2F53E62 
 366      7DA8
 367 0846 64832B44 		.ascii	"d\203+Df])\263\336\317\352$H\373\211C[oM\017's\030\221"
 367      665D29B3 
 367      DECFEA24 
 367      48FB8943 
 367      5B6F4D0F 
 368 085e 39E489E1 		.ascii	"9\344\211\341\363\210uRz\345\345i2\353q\231u\276h\235"
 368      F3887552 
 368      7AE5E569 
 368      32EB7199 
 368      75BE689D 
 369 0872 4FAC9D0F 		.ascii	"O\254\235\017\032[\325R\325\223\177\272\200\030\316"
 369      1A5BD552 
 369      D5937FBA 
 369      8018CE
 370 0881 8991230A 		.ascii	"\211\221#\012Y\202\003\262\332\034\024\023\034$\011"
 370      598203B2 
 370      DA1C1413 
 370      1C2409
ARM GAS  C:\Users\zozo\AppData\Local\Temp\ccb2ix8M.s 			page 29


 371 0890 5CB9434E 		.ascii	"\\\271CN9\370\27328\005\242u\001\261>\320\344v\007\313"
 371      39F8BB32 
 371      3805A275 
 371      01B13ED0 
 371      E47607CB 
 372 08a4 ACFB64D6 		.ascii	"\254\373d\326\205\242u!\261n\257u\271\202\270\016\245"
 372      85A27521 
 372      B16EAF75 
 372      B982B80E 
 372      A5
 373 08b5 EC67D42C 		.ascii	"\354g\324,\3723jK\343\356\223\034Q\275d\213\352\354"
 373      FA336A4B 
 373      E3EE931C 
 373      51BD648B 
 373      EAEC
 374 08c7 DC36C649 		.ascii	"\3346\306I\277\241\344\237\366\305\300s\226\364\343"
 374      BFA1E49F 
 374      F6C5C073 
 374      96F4E3
 375 08d6 1566EB61 		.ascii	"\025f\353a6T\334)\013\365\260\223\035\001vE\376i2K\234"
 375      3654DC29 
 375      0BF5B093 
 375      1D017645 
 375      FE69324B 
 376 08eb 25781C2F 		.ascii	"%x\034/\221\013\247\012t2\304[\002\366L\250\246\210"
 376      910BA70A 
 376      7432C45B 
 376      02F64CA8 
 376      A688
 377 08fd B88420AE 		.ascii	"\270\204 \256\313\276\377\265Vf\215\227\212\337\272"
 377      CBBEFFB5 
 377      56668D97 
 377      8ADFBA
 378 090c 54B42E25 		.ascii	"T\264.%\326\025\027\213\327\373\252\201\233\203\317"
 378      D615178B 
 378      D7FBAA81 
 378      9B83CF
 379 091b 7CBFF10A 		.ascii	"|\277\361\012\337<9J\314=\333\353GY\255\370\003=\371"
 379      DF3C394A 
 379      CC3DDBEB 
 379      4759ADF8 
 379      033DF9
 380 092e 67FC403F 		.ascii	"g\374@?F\030\364\226\347\244\"\031\246:Y\315\313DLe"
 380      4618F496 
 380      E7A42219 
 380      A63A59CD 
 380      CB444C65 
 381 0942 2489B033 		.ascii	"$\211\26035/\210\353\2425\257\030I\251\236Fg\317O\227"
 381      352F88EB 
 381      A235AF18 
 381      49A99E46 
 381      67CF4F97 
 382 0956 147FB85D 		.ascii	"\024\177\270]Hi\327H\013V\356\361\305TM8_2\003\232P"
 382      4869D748 
 382      0B56EEF1 
 382      C5544D38 
 382      5F32039A 
ARM GAS  C:\Users\zozo\AppData\Local\Temp\ccb2ix8M.s 			page 30


 383 096b 094D28F7 		.ascii	"\011M(\3677\241\"`\255\366\244\235qk$\020\311?\021\022"
 383      37A12260 
 383      ADF6A49D 
 383      716B2410 
 383      C93F1112 
 384 097f EC4F667E 		.ascii	"\354Of~V$_ U\262\371[-\362\255&|7]\333\335$\357o\245"
 384      56245F20 
 384      55B2F95B 
 384      2DF2AD26 
 384      7C375DDB 
 385 0998 CCBA46B4 		.ascii	"\314\272F\264\306wU\274\331\342X\270T\365\366\337\336"
 385      C67755BC 
 385      D9E258B8 
 385      54F5F6DF 
 385      DE
 386 09a9 334430F3 		.ascii	"3D0\363\302#\337\346-\274\315\350\340\243V\257\262\306"
 386      C223DFE6 
 386      2DBCCDE8 
 386      E0A356AF 
 386      B2C6
 387 09bb DB4C7CE4 		.ascii	"\333L|\344\312U\326\210%\221\246\004GB\034o\017\377"
 387      CA55D688 
 387      2591A604 
 387      47421C6F 
 387      0FFF
 388 09cd 887A2C5E 		.ascii	"\210z,^4\375\317\026c\2545f\025\357x\203\2176\306\307"
 388      34FDCF16 
 388      63AC3566 
 388      15EF7883 
 388      8F36C6C7 
 389 09e1 3AE63FC5 		.ascii	":\346?\3057\332\354p\360\266\325\246\350\230p\023\243"
 389      37DAEC70 
 389      F0B6D5A6 
 389      E8987013 
 389      A3
 390 09f2 B29BFFCD 		.ascii	"\262\233\377\315\257v\374'\352\325\3108\2335\306f\\"
 390      AF76FC27 
 390      EAD5C838 
 390      9B35C666 
 390      5C
 391 0a03 6B8836C7 		.ascii	"k\2106\307\362v\303\374\177-[\272\000\254\343l\274\335"
 391      F276C3FC 
 391      7F2D5BBA 
 391      00ACE36C 
 391      BCDD
 392 0a15 1E1967B7 		.ascii	"\036\031g\267\232\014&\033otXm\221\213\303\027\313\007"
 392      9A0C261B 
 392      6F74586D 
 392      918BC317 
 392      CB07
 393 0a27 CC6BE3AC 		.ascii	"\314k\343\2546Gd\214%>\322h[\033\271$\374\025\260\210"
 393      3647648C 
 393      253ED268 
 393      5B1BB924 
 393      FC15B088 
 394 0a3b 35AF898C 		.ascii	"5\257\211\2141\231\360\310K\026\253\205\177\2117\256"
 394      3199F0C8 
ARM GAS  C:\Users\zozo\AppData\Local\Temp\ccb2ix8M.s 			page 31


 394      4B16AB85 
 394      7F8937AE 
 395 0a4b 318BEFCC 		.ascii	"1\213\357\314\026Sl|\024\037iwDE\361\321\300C\023\361"
 395      16536C7C 
 395      141F6977 
 395      4445F1D1 
 395      C04313F1 
 396 0a5f FEBB6FBE 		.ascii	"\376\273o\276\373\3177\377\276B\025o\211\267\363Q\332"
 396      FBCF37FF 
 396      BE42156F 
 396      89B7F351 
 396      DA
 397 0a70 8858ABE9 		.ascii	"\210X\253\351c \024\037\247\266\363&\207\331jQ\230>"
 397      6320141F 
 397      A7B6F326 
 397      87D96A51 
 397      983E
 398 0a82 32DAB4E1 		.ascii	"2\332\264\3418\263\331bv0\272@*jHa\211\217\215UG[\014"
 398      38B3D962 
 398      7630BA40 
 398      2A6A4861 
 398      898F8D55 
 399 0a99 F638DE84 		.ascii	"\3668\336\204\026\252\326\362k\355\274\003^8>\262Y?"
 399      16AAD6F2 
 399      6BEDBC03 
 399      5E383EB2 
 399      593F
 400 0aab 51C4F2C6 		.ascii	"Q\304\362\306\350u\377\177\232rz~b6\263%\206\020Kx\203"
 400      E875FF7F 
 400      9A727A7E 
 400      6236B325 
 400      86104B78 
 401 0ac0 8F3526BC 		.ascii	"\2175&\274g\2373eK\"\022\376j^\003\266A\246\004\273"
 401      679F3365 
 401      4B2212FE 
 401      6A5E03B6 
 401      41A604BB 
 402 0ad4 C3E888B7 		.ascii	"\303\350\210\267O\217HX\225`\217\210\375\370M\223u\225"
 402      4F8F4858 
 402      95608F88 
 402      FDF84D93 
 402      7595
 403 0ae6 C368733C 		.ascii	"\303hs<#\015\374\303fv\360\177Yk}\313\306\257{\3267"
 403      230DFCC3 
 403      6676F07F 
 403      596B7DCB 
 403      C6AF7BD6 
 404 0afb 0856BC63 		.ascii	"\010V\274c\245\365\023\336\366\2565\212\237z\336@\242"
 404      A5F513DE 
 404      F6AE358A 
 404      9F7ADE40 
 404      A2
 405 0b0c B7C01E52 		.ascii	"\267\300\036RM\023aE$\230\240\012\323\003#\341|\252"
 405      4D136145 
 405      2498A00A 
 405      D30323E1 
 405      7CAA
ARM GAS  C:\Users\zozo\AppData\Local\Temp\ccb2ix8M.s 			page 32


 406 0b1e 38A3E963 		.ascii	"8\243\351c>Jm\214\212\302uQ\340I\242\203*\257\2465]"
 406      3E4A6D8C 
 406      8AC27551 
 406      E049A283 
 406      2AAFA635 
 407 0b33 ED080950 		.ascii	"\355\010\011Pb\315v\3073O\350\341K\376\270d\221\322"
 407      62CD76C7 
 407      334FE8E1 
 407      4BFEB864 
 407      91D2
 408 0b45 C6C72C5E 		.ascii	"\306\307,^\244\304St\231\002\236\227\375\027\020\257"
 408      A4C45374 
 408      99029E97 
 408      FD1710AF 
 409 0b55 6CB0     		.ascii	"l\260"
 410              		.text
 411              		.section	.gnu.lto_.symtab.d9226e76,"",%progbits
 412 0000 63796669 		.ascii	"cyfitter_cfg\000\000\000\000\000\000\000\000\000\000"
 412      74746572 
 412      5F636667 
 412      00000000 
 412      00000000 
 413 0016 0000D900 		.ascii	"\000\000\331\000\000\000CyDelayUs\000\000\002\000\000"
 413      00004379 
 413      44656C61 
 413      79557300 
 413      00020000 
 414 002a 00000000 		.ascii	"\000\000\000\000\000\000\000\355\000\000\000CySysCl"
 414      000000ED 
 414      00000043 
 414      79537973 
 414      436C
 415 003c 6B45636F 		.ascii	"kEcoStart\000\000\002\000\000\000\000\000\000\000\000"
 415      53746172 
 415      74000002 
 415      00000000 
 415      00000000 
 416 0050 00F40000 		.ascii	"\000\364\000\000\000CySysClkWriteImoFreq\000\000\002"
 416      00437953 
 416      7973436C 
 416      6B577269 
 416      7465496D 
 417 006c 00000000 		.ascii	"\000\000\000\000\000\000\000\000\000\370\000\000\000"
 417      00000000 
 417      00F80000 
 417      00
 418 0079 43795379 		.ascii	"CySysClkWcoSetPowerMode\000\000\002\000\000\000\000"
 418      73436C6B 
 418      57636F53 
 418      6574506F 
 418      7765724D 
 419 0097 00000000 		.ascii	"\000\000\000\000\000\374\000\000\000CyDelayCycles\000"
 419      00FC0000 
 419      00437944 
 419      656C6179 
 419      4379636C 
 420 00ae 00020000 		.ascii	"\000\002\000\000\000\000\000\000\000\000\000\376\000"
ARM GAS  C:\Users\zozo\AppData\Local\Temp\ccb2ix8M.s 			page 33


 420      00000000 
 420      000000FE 
 420      00
 421 00bb 00004379 		.ascii	"\000\000CySysClkWcoStart\000\000\002\000\000\000\000"
 421      53797343 
 421      6C6B5763 
 421      6F537461 
 421      72740000 
 422 00d4 00000000 		.ascii	"\000\000\000\000\000\000\001\000\000"
 422      00000100 
 422      00
 423              		.text
 424              		.section	.gnu.lto_.opts,"",%progbits
 425 0000 272D666E 		.ascii	"'-fno-trapv' '-mcpu=cortex-m0' '-mthumb' '-g' '-Os'"
 425      6F2D7472 
 425      61707627 
 425      20272D6D 
 425      6370753D 
 426 0033 20272D66 		.ascii	" '-ffunction-sections' '-flto' '-ffat-lto-objects'\000"
 426      66756E63 
 426      74696F6E 
 426      2D736563 
 426      74696F6E 
 427              		.text
 428              		.cfi_sections	.debug_frame
 429              		.section	.psocinit,"ax",%progbits
 430              		.align	1
 431              		.global	cyfitter_cfg
 432              		.code	16
 433              		.thumb_func
 434              		.type	cyfitter_cfg, %function
 435              	cyfitter_cfg:
 436              	.LFB7:
 437              		.file 1 ".\\Generated_Source\\PSoC4\\cyfitter_cfg.c"
   1:.\Generated_Source\PSoC4/cyfitter_cfg.c **** /*******************************************************************************
   2:.\Generated_Source\PSoC4/cyfitter_cfg.c **** * File Name: cyfitter_cfg.c
   3:.\Generated_Source\PSoC4/cyfitter_cfg.c **** * 
   4:.\Generated_Source\PSoC4/cyfitter_cfg.c **** * PSoC Creator  3.3 CP2
   5:.\Generated_Source\PSoC4/cyfitter_cfg.c **** *
   6:.\Generated_Source\PSoC4/cyfitter_cfg.c **** * Description:
   7:.\Generated_Source\PSoC4/cyfitter_cfg.c **** * This file contains device initialization code.
   8:.\Generated_Source\PSoC4/cyfitter_cfg.c **** * Except for the user defined sections in CyClockStartupError(), this file should not be modified.
   9:.\Generated_Source\PSoC4/cyfitter_cfg.c **** * This file is automatically generated by PSoC Creator.
  10:.\Generated_Source\PSoC4/cyfitter_cfg.c **** *
  11:.\Generated_Source\PSoC4/cyfitter_cfg.c **** ********************************************************************************
  12:.\Generated_Source\PSoC4/cyfitter_cfg.c **** * Copyright (c) 2007-2015 Cypress Semiconductor.  All rights reserved.
  13:.\Generated_Source\PSoC4/cyfitter_cfg.c **** * You may use this file only in accordance with the license, terms, conditions, 
  14:.\Generated_Source\PSoC4/cyfitter_cfg.c **** * disclaimers, and limitations in the end user license agreement accompanying 
  15:.\Generated_Source\PSoC4/cyfitter_cfg.c **** * the software package with which this file was provided.
  16:.\Generated_Source\PSoC4/cyfitter_cfg.c **** ********************************************************************************/
  17:.\Generated_Source\PSoC4/cyfitter_cfg.c **** 
  18:.\Generated_Source\PSoC4/cyfitter_cfg.c **** #include <string.h>
  19:.\Generated_Source\PSoC4/cyfitter_cfg.c **** #include "cytypes.h"
  20:.\Generated_Source\PSoC4/cyfitter_cfg.c **** #include "cydevice_trm.h"
  21:.\Generated_Source\PSoC4/cyfitter_cfg.c **** #include "cyfitter.h"
  22:.\Generated_Source\PSoC4/cyfitter_cfg.c **** #include "CyLib.h"
  23:.\Generated_Source\PSoC4/cyfitter_cfg.c **** #include "cyfitter_cfg.h"
ARM GAS  C:\Users\zozo\AppData\Local\Temp\ccb2ix8M.s 			page 34


  24:.\Generated_Source\PSoC4/cyfitter_cfg.c **** 
  25:.\Generated_Source\PSoC4/cyfitter_cfg.c **** 
  26:.\Generated_Source\PSoC4/cyfitter_cfg.c **** #if defined(__GNUC__) || defined(__ARMCC_VERSION)
  27:.\Generated_Source\PSoC4/cyfitter_cfg.c ****     #define CYPACKED 
  28:.\Generated_Source\PSoC4/cyfitter_cfg.c ****     #define CYPACKED_ATTR __attribute__ ((packed))
  29:.\Generated_Source\PSoC4/cyfitter_cfg.c ****     #define CYALIGNED __attribute__ ((aligned))
  30:.\Generated_Source\PSoC4/cyfitter_cfg.c ****     #define CY_CFG_UNUSED __attribute__ ((unused))
  31:.\Generated_Source\PSoC4/cyfitter_cfg.c ****     #ifndef CY_CFG_SECTION
  32:.\Generated_Source\PSoC4/cyfitter_cfg.c ****         #define CY_CFG_SECTION __attribute__ ((section(".psocinit")))
  33:.\Generated_Source\PSoC4/cyfitter_cfg.c ****     #endif
  34:.\Generated_Source\PSoC4/cyfitter_cfg.c ****     
  35:.\Generated_Source\PSoC4/cyfitter_cfg.c ****     #if defined(__ARMCC_VERSION)
  36:.\Generated_Source\PSoC4/cyfitter_cfg.c ****         #define CY_CFG_MEMORY_BARRIER() __memory_changed()
  37:.\Generated_Source\PSoC4/cyfitter_cfg.c ****     #else
  38:.\Generated_Source\PSoC4/cyfitter_cfg.c ****         #define CY_CFG_MEMORY_BARRIER() __sync_synchronize()
  39:.\Generated_Source\PSoC4/cyfitter_cfg.c ****     #endif
  40:.\Generated_Source\PSoC4/cyfitter_cfg.c ****     
  41:.\Generated_Source\PSoC4/cyfitter_cfg.c **** #elif defined(__ICCARM__)
  42:.\Generated_Source\PSoC4/cyfitter_cfg.c ****     #include <intrinsics.h>
  43:.\Generated_Source\PSoC4/cyfitter_cfg.c **** 
  44:.\Generated_Source\PSoC4/cyfitter_cfg.c ****     #define CYPACKED __packed
  45:.\Generated_Source\PSoC4/cyfitter_cfg.c ****     #define CYPACKED_ATTR 
  46:.\Generated_Source\PSoC4/cyfitter_cfg.c ****     #define CYALIGNED _Pragma("data_alignment=4")
  47:.\Generated_Source\PSoC4/cyfitter_cfg.c ****     #define CY_CFG_UNUSED _Pragma("diag_suppress=Pe177")
  48:.\Generated_Source\PSoC4/cyfitter_cfg.c ****     #define CY_CFG_SECTION _Pragma("location=\".psocinit\"")
  49:.\Generated_Source\PSoC4/cyfitter_cfg.c ****     
  50:.\Generated_Source\PSoC4/cyfitter_cfg.c ****     #define CY_CFG_MEMORY_BARRIER() __DMB()
  51:.\Generated_Source\PSoC4/cyfitter_cfg.c ****     
  52:.\Generated_Source\PSoC4/cyfitter_cfg.c **** #else
  53:.\Generated_Source\PSoC4/cyfitter_cfg.c ****     #error Unsupported toolchain
  54:.\Generated_Source\PSoC4/cyfitter_cfg.c **** #endif
  55:.\Generated_Source\PSoC4/cyfitter_cfg.c **** 
  56:.\Generated_Source\PSoC4/cyfitter_cfg.c **** 
  57:.\Generated_Source\PSoC4/cyfitter_cfg.c **** CY_CFG_UNUSED
  58:.\Generated_Source\PSoC4/cyfitter_cfg.c **** static void CYMEMZERO(void *s, size_t n);
  59:.\Generated_Source\PSoC4/cyfitter_cfg.c **** CY_CFG_UNUSED
  60:.\Generated_Source\PSoC4/cyfitter_cfg.c **** static void CYMEMZERO(void *s, size_t n)
  61:.\Generated_Source\PSoC4/cyfitter_cfg.c **** {
  62:.\Generated_Source\PSoC4/cyfitter_cfg.c **** 	(void)memset(s, 0, n);
  63:.\Generated_Source\PSoC4/cyfitter_cfg.c **** }
  64:.\Generated_Source\PSoC4/cyfitter_cfg.c **** CY_CFG_UNUSED
  65:.\Generated_Source\PSoC4/cyfitter_cfg.c **** static void CYCONFIGCPY(void *dest, const void *src, size_t n);
  66:.\Generated_Source\PSoC4/cyfitter_cfg.c **** CY_CFG_UNUSED
  67:.\Generated_Source\PSoC4/cyfitter_cfg.c **** static void CYCONFIGCPY(void *dest, const void *src, size_t n)
  68:.\Generated_Source\PSoC4/cyfitter_cfg.c **** {
  69:.\Generated_Source\PSoC4/cyfitter_cfg.c **** 	(void)memcpy(dest, src, n);
  70:.\Generated_Source\PSoC4/cyfitter_cfg.c **** }
  71:.\Generated_Source\PSoC4/cyfitter_cfg.c **** CY_CFG_UNUSED
  72:.\Generated_Source\PSoC4/cyfitter_cfg.c **** static void CYCONFIGCPYCODE(void *dest, const void *src, size_t n);
  73:.\Generated_Source\PSoC4/cyfitter_cfg.c **** CY_CFG_UNUSED
  74:.\Generated_Source\PSoC4/cyfitter_cfg.c **** static void CYCONFIGCPYCODE(void *dest, const void *src, size_t n)
  75:.\Generated_Source\PSoC4/cyfitter_cfg.c **** {
  76:.\Generated_Source\PSoC4/cyfitter_cfg.c **** 	(void)memcpy(dest, src, n);
  77:.\Generated_Source\PSoC4/cyfitter_cfg.c **** }
  78:.\Generated_Source\PSoC4/cyfitter_cfg.c **** 
  79:.\Generated_Source\PSoC4/cyfitter_cfg.c **** 
  80:.\Generated_Source\PSoC4/cyfitter_cfg.c **** 
ARM GAS  C:\Users\zozo\AppData\Local\Temp\ccb2ix8M.s 			page 35


  81:.\Generated_Source\PSoC4/cyfitter_cfg.c **** /* Clock startup error codes                                                   */
  82:.\Generated_Source\PSoC4/cyfitter_cfg.c **** #define CYCLOCKSTART_NO_ERROR    0u
  83:.\Generated_Source\PSoC4/cyfitter_cfg.c **** #define CYCLOCKSTART_XTAL_ERROR  1u
  84:.\Generated_Source\PSoC4/cyfitter_cfg.c **** #define CYCLOCKSTART_32KHZ_ERROR 2u
  85:.\Generated_Source\PSoC4/cyfitter_cfg.c **** #define CYCLOCKSTART_PLL_ERROR   3u
  86:.\Generated_Source\PSoC4/cyfitter_cfg.c **** 
  87:.\Generated_Source\PSoC4/cyfitter_cfg.c **** #ifdef CY_NEED_CYCLOCKSTARTUPERROR
  88:.\Generated_Source\PSoC4/cyfitter_cfg.c **** /*******************************************************************************
  89:.\Generated_Source\PSoC4/cyfitter_cfg.c **** * Function Name: CyClockStartupError
  90:.\Generated_Source\PSoC4/cyfitter_cfg.c **** ********************************************************************************
  91:.\Generated_Source\PSoC4/cyfitter_cfg.c **** * Summary:
  92:.\Generated_Source\PSoC4/cyfitter_cfg.c **** *  If an error is encountered during clock configuration (crystal startup error,
  93:.\Generated_Source\PSoC4/cyfitter_cfg.c **** *  PLL lock error, etc.), the system will end up here.  Unless reimplemented by
  94:.\Generated_Source\PSoC4/cyfitter_cfg.c **** *  the customer, this function will stop in an infinite loop.
  95:.\Generated_Source\PSoC4/cyfitter_cfg.c **** *
  96:.\Generated_Source\PSoC4/cyfitter_cfg.c **** * Parameters:
  97:.\Generated_Source\PSoC4/cyfitter_cfg.c **** *   void
  98:.\Generated_Source\PSoC4/cyfitter_cfg.c **** *
  99:.\Generated_Source\PSoC4/cyfitter_cfg.c **** * Return:
 100:.\Generated_Source\PSoC4/cyfitter_cfg.c **** *   void
 101:.\Generated_Source\PSoC4/cyfitter_cfg.c **** *
 102:.\Generated_Source\PSoC4/cyfitter_cfg.c **** *******************************************************************************/
 103:.\Generated_Source\PSoC4/cyfitter_cfg.c **** CY_CFG_UNUSED
 104:.\Generated_Source\PSoC4/cyfitter_cfg.c **** static void CyClockStartupError(uint8 errorCode);
 105:.\Generated_Source\PSoC4/cyfitter_cfg.c **** CY_CFG_UNUSED
 106:.\Generated_Source\PSoC4/cyfitter_cfg.c **** static void CyClockStartupError(uint8 errorCode)
 107:.\Generated_Source\PSoC4/cyfitter_cfg.c **** {
 108:.\Generated_Source\PSoC4/cyfitter_cfg.c ****     /* To remove the compiler warning if errorCode not used.                */
 109:.\Generated_Source\PSoC4/cyfitter_cfg.c ****     errorCode = errorCode;
 110:.\Generated_Source\PSoC4/cyfitter_cfg.c **** 
 111:.\Generated_Source\PSoC4/cyfitter_cfg.c ****     /* `#START CyClockStartupError` */
 112:.\Generated_Source\PSoC4/cyfitter_cfg.c **** 
 113:.\Generated_Source\PSoC4/cyfitter_cfg.c ****     /* If we have a clock startup error (bad MHz crystal, PLL lock, etc.),  */
 114:.\Generated_Source\PSoC4/cyfitter_cfg.c ****     /* we will end up here to allow the customer to implement something to  */
 115:.\Generated_Source\PSoC4/cyfitter_cfg.c ****     /* deal with the clock condition.                                       */
 116:.\Generated_Source\PSoC4/cyfitter_cfg.c **** 
 117:.\Generated_Source\PSoC4/cyfitter_cfg.c ****     /* `#END` */
 118:.\Generated_Source\PSoC4/cyfitter_cfg.c **** 
 119:.\Generated_Source\PSoC4/cyfitter_cfg.c ****     /* If nothing else, stop here since the clocks have not started         */
 120:.\Generated_Source\PSoC4/cyfitter_cfg.c ****     /* correctly.                                                           */
 121:.\Generated_Source\PSoC4/cyfitter_cfg.c ****     while(1) {}
 122:.\Generated_Source\PSoC4/cyfitter_cfg.c **** }
 123:.\Generated_Source\PSoC4/cyfitter_cfg.c **** #endif
 124:.\Generated_Source\PSoC4/cyfitter_cfg.c **** 
 125:.\Generated_Source\PSoC4/cyfitter_cfg.c **** 
 126:.\Generated_Source\PSoC4/cyfitter_cfg.c **** 
 127:.\Generated_Source\PSoC4/cyfitter_cfg.c **** /*******************************************************************************
 128:.\Generated_Source\PSoC4/cyfitter_cfg.c **** * Function Name: ClockSetup
 129:.\Generated_Source\PSoC4/cyfitter_cfg.c **** ********************************************************************************
 130:.\Generated_Source\PSoC4/cyfitter_cfg.c **** *
 131:.\Generated_Source\PSoC4/cyfitter_cfg.c **** * Summary:
 132:.\Generated_Source\PSoC4/cyfitter_cfg.c **** *   Performs the initialization of all of the clocks in the device based on the
 133:.\Generated_Source\PSoC4/cyfitter_cfg.c **** *   settings in the Clock tab of the DWR.  This includes enabling the requested
 134:.\Generated_Source\PSoC4/cyfitter_cfg.c **** *   clocks and setting the necessary dividers to produce the desired frequency. 
 135:.\Generated_Source\PSoC4/cyfitter_cfg.c **** *
 136:.\Generated_Source\PSoC4/cyfitter_cfg.c **** * Parameters:
 137:.\Generated_Source\PSoC4/cyfitter_cfg.c **** *   void
ARM GAS  C:\Users\zozo\AppData\Local\Temp\ccb2ix8M.s 			page 36


 138:.\Generated_Source\PSoC4/cyfitter_cfg.c **** *
 139:.\Generated_Source\PSoC4/cyfitter_cfg.c **** * Return:
 140:.\Generated_Source\PSoC4/cyfitter_cfg.c **** *   void
 141:.\Generated_Source\PSoC4/cyfitter_cfg.c **** *
 142:.\Generated_Source\PSoC4/cyfitter_cfg.c **** *******************************************************************************/
 143:.\Generated_Source\PSoC4/cyfitter_cfg.c **** static void ClockSetup(void);
 144:.\Generated_Source\PSoC4/cyfitter_cfg.c **** CY_CFG_SECTION
 145:.\Generated_Source\PSoC4/cyfitter_cfg.c **** static void ClockSetup(void)
 146:.\Generated_Source\PSoC4/cyfitter_cfg.c **** {
 147:.\Generated_Source\PSoC4/cyfitter_cfg.c **** 
 148:.\Generated_Source\PSoC4/cyfitter_cfg.c **** 	/* Set Flash Cycles based on max possible frequency in case a glitch occurs during ClockSetup(). *
 149:.\Generated_Source\PSoC4/cyfitter_cfg.c **** 	CY_SET_REG32((void CYXDATA *)(CYREG_CPUSS_FLASH_CTL), (0x0012u));
 150:.\Generated_Source\PSoC4/cyfitter_cfg.c **** 
 151:.\Generated_Source\PSoC4/cyfitter_cfg.c **** 	/* Start the WCO */
 152:.\Generated_Source\PSoC4/cyfitter_cfg.c **** 	CySysClkWcoStart();
 153:.\Generated_Source\PSoC4/cyfitter_cfg.c **** 	CyDelayCycles(12000000u); /* WCO may take up to 500ms to start */
 154:.\Generated_Source\PSoC4/cyfitter_cfg.c **** 	(void)CySysClkWcoSetPowerMode(CY_SYS_CLK_WCO_LPM);    /* Switch to the low power mode */
 155:.\Generated_Source\PSoC4/cyfitter_cfg.c **** 
 156:.\Generated_Source\PSoC4/cyfitter_cfg.c **** 	/* Setup and trim IMO based on desired frequency. */
 157:.\Generated_Source\PSoC4/cyfitter_cfg.c **** 	CySysClkWriteImoFreq(12u);
 158:.\Generated_Source\PSoC4/cyfitter_cfg.c **** 	/* CYDEV_CLK_ILO_CONFIG Starting address: CYDEV_CLK_ILO_CONFIG */
 159:.\Generated_Source\PSoC4/cyfitter_cfg.c **** 	CY_SET_XTND_REG32((void CYFAR *)(CYREG_CLK_ILO_CONFIG), 0x80000006u);
 160:.\Generated_Source\PSoC4/cyfitter_cfg.c **** 
 161:.\Generated_Source\PSoC4/cyfitter_cfg.c **** 	/* CYDEV_WDT_CONFIG Starting address: CYDEV_WDT_CONFIG */
 162:.\Generated_Source\PSoC4/cyfitter_cfg.c **** 	CY_SET_XTND_REG32((void CYFAR *)(CYREG_WDT_CONFIG), 0x40000000u);
 163:.\Generated_Source\PSoC4/cyfitter_cfg.c **** 
 164:.\Generated_Source\PSoC4/cyfitter_cfg.c **** 
 165:.\Generated_Source\PSoC4/cyfitter_cfg.c **** 	/* Enable fast start mode for XO */
 166:.\Generated_Source\PSoC4/cyfitter_cfg.c **** 	CY_SET_REG32((void*)CYREG_BLE_BLERD_BB_XO, CY_GET_REG32((void*)CYREG_BLE_BLERD_BB_XO) | (uint32)0x
 167:.\Generated_Source\PSoC4/cyfitter_cfg.c **** 	CY_SET_XTND_REG32((void CYFAR *)(CYREG_BLE_BLERD_BB_XO_CAPTRIM), 0x00003E2Du);
 168:.\Generated_Source\PSoC4/cyfitter_cfg.c **** 	/* Disable Crystal Stable Interrupt before enabling ECO */
 169:.\Generated_Source\PSoC4/cyfitter_cfg.c **** 	CY_SET_REG32((void*)CYREG_BLE_BLESS_LL_DSM_CTRL, CY_GET_REG32((void*)CYREG_BLE_BLESS_LL_DSM_CTRL) 
 170:.\Generated_Source\PSoC4/cyfitter_cfg.c **** 	/* Start the ECO and do not check status since it is not needed for HFCLK */
 171:.\Generated_Source\PSoC4/cyfitter_cfg.c **** 	(void)CySysClkEcoStart(2000u);
 172:.\Generated_Source\PSoC4/cyfitter_cfg.c **** 	CyDelayUs(1500u); /* Wait to stabalize */
 173:.\Generated_Source\PSoC4/cyfitter_cfg.c **** 
 174:.\Generated_Source\PSoC4/cyfitter_cfg.c **** 	/* Setup phase aligned clocks */
 175:.\Generated_Source\PSoC4/cyfitter_cfg.c **** 	CY_SET_REG32((void *)CYREG_PERI_DIV_16_CTL0, 0x002EDF00u);
 176:.\Generated_Source\PSoC4/cyfitter_cfg.c **** 	CY_SET_REG32((void *)CYREG_PERI_DIV_CMD, 0x8000FF40u);
 177:.\Generated_Source\PSoC4/cyfitter_cfg.c **** 
 178:.\Generated_Source\PSoC4/cyfitter_cfg.c **** 	/* CYDEV_CLK_IMO_CONFIG Starting address: CYDEV_CLK_IMO_CONFIG */
 179:.\Generated_Source\PSoC4/cyfitter_cfg.c **** 	CY_SET_XTND_REG32((void CYFAR *)(CYREG_CLK_IMO_CONFIG), 0x80000000u);
 180:.\Generated_Source\PSoC4/cyfitter_cfg.c **** 
 181:.\Generated_Source\PSoC4/cyfitter_cfg.c **** 	/* CYDEV_CLK_SELECT Starting address: CYDEV_CLK_SELECT */
 182:.\Generated_Source\PSoC4/cyfitter_cfg.c **** 	CY_SET_XTND_REG32((void CYFAR *)(CYREG_CLK_SELECT), 0x00000000u);
 183:.\Generated_Source\PSoC4/cyfitter_cfg.c **** 
 184:.\Generated_Source\PSoC4/cyfitter_cfg.c **** 	/* CYDEV_PERI_PCLK_CTL7 Starting address: CYDEV_PERI_PCLK_CTL7 */
 185:.\Generated_Source\PSoC4/cyfitter_cfg.c **** 	CY_SET_XTND_REG32((void CYFAR *)(CYREG_PERI_PCLK_CTL7), 0x00000040u);
 186:.\Generated_Source\PSoC4/cyfitter_cfg.c **** 
 187:.\Generated_Source\PSoC4/cyfitter_cfg.c **** 	CY_SET_XTND_REG32((void CYFAR *)(CYREG_WDT_CONFIG), 0x40000000u);
 188:.\Generated_Source\PSoC4/cyfitter_cfg.c **** 	/* Set Flash Cycles based on newly configured 12.00MHz HFCLK. */
 189:.\Generated_Source\PSoC4/cyfitter_cfg.c **** 	CY_SET_REG32((void CYXDATA *)(CYREG_CPUSS_FLASH_CTL), (0x0000u));
 190:.\Generated_Source\PSoC4/cyfitter_cfg.c **** }
 191:.\Generated_Source\PSoC4/cyfitter_cfg.c **** 
 192:.\Generated_Source\PSoC4/cyfitter_cfg.c **** 
 193:.\Generated_Source\PSoC4/cyfitter_cfg.c **** /* Analog API Functions */
 194:.\Generated_Source\PSoC4/cyfitter_cfg.c **** 
ARM GAS  C:\Users\zozo\AppData\Local\Temp\ccb2ix8M.s 			page 37


 195:.\Generated_Source\PSoC4/cyfitter_cfg.c **** 
 196:.\Generated_Source\PSoC4/cyfitter_cfg.c **** /*******************************************************************************
 197:.\Generated_Source\PSoC4/cyfitter_cfg.c **** * Function Name: AnalogSetDefault
 198:.\Generated_Source\PSoC4/cyfitter_cfg.c **** ********************************************************************************
 199:.\Generated_Source\PSoC4/cyfitter_cfg.c **** *
 200:.\Generated_Source\PSoC4/cyfitter_cfg.c **** * Summary:
 201:.\Generated_Source\PSoC4/cyfitter_cfg.c **** *  Sets up the analog portions of the chip to default values based on chip
 202:.\Generated_Source\PSoC4/cyfitter_cfg.c **** *  configuration options from the project.
 203:.\Generated_Source\PSoC4/cyfitter_cfg.c **** *
 204:.\Generated_Source\PSoC4/cyfitter_cfg.c **** * Parameters:
 205:.\Generated_Source\PSoC4/cyfitter_cfg.c **** *  void
 206:.\Generated_Source\PSoC4/cyfitter_cfg.c **** *
 207:.\Generated_Source\PSoC4/cyfitter_cfg.c **** * Return:
 208:.\Generated_Source\PSoC4/cyfitter_cfg.c **** *  void
 209:.\Generated_Source\PSoC4/cyfitter_cfg.c **** *
 210:.\Generated_Source\PSoC4/cyfitter_cfg.c **** *******************************************************************************/
 211:.\Generated_Source\PSoC4/cyfitter_cfg.c **** static void AnalogSetDefault(void);
 212:.\Generated_Source\PSoC4/cyfitter_cfg.c **** static void AnalogSetDefault(void)
 213:.\Generated_Source\PSoC4/cyfitter_cfg.c **** {
 214:.\Generated_Source\PSoC4/cyfitter_cfg.c **** 	CY_SET_XTND_REG32((void CYFAR *)CYREG_CTBM0_DFT_CTRL, 0x00000003u);
 215:.\Generated_Source\PSoC4/cyfitter_cfg.c **** 	CY_SET_XTND_REG32((void CYFAR *)CYREG_CTBM1_DFT_CTRL, 0x00000003u);
 216:.\Generated_Source\PSoC4/cyfitter_cfg.c **** 	CY_SET_XTND_REG32((void CYFAR *)CYREG_PASS_DSAB_DSAB_CTRL, 0x00000000u);
 217:.\Generated_Source\PSoC4/cyfitter_cfg.c **** }
 218:.\Generated_Source\PSoC4/cyfitter_cfg.c **** 
 219:.\Generated_Source\PSoC4/cyfitter_cfg.c **** #define CY_AMUX_UNUSED CYREG_CM0_ROM_DWT
 220:.\Generated_Source\PSoC4/cyfitter_cfg.c **** 
 221:.\Generated_Source\PSoC4/cyfitter_cfg.c **** 
 222:.\Generated_Source\PSoC4/cyfitter_cfg.c **** /*******************************************************************************
 223:.\Generated_Source\PSoC4/cyfitter_cfg.c **** * Function Name: cyfitter_cfg
 224:.\Generated_Source\PSoC4/cyfitter_cfg.c **** ********************************************************************************
 225:.\Generated_Source\PSoC4/cyfitter_cfg.c **** * Summary:
 226:.\Generated_Source\PSoC4/cyfitter_cfg.c **** *  This function is called by the start-up code for the selected device. It
 227:.\Generated_Source\PSoC4/cyfitter_cfg.c **** *  performs all of the necessary device configuration based on the design
 228:.\Generated_Source\PSoC4/cyfitter_cfg.c **** *  settings.  This includes settings from the Design Wide Resources (DWR) such
 229:.\Generated_Source\PSoC4/cyfitter_cfg.c **** *  as Clocks and Pins as well as any component configuration that is necessary.
 230:.\Generated_Source\PSoC4/cyfitter_cfg.c **** *
 231:.\Generated_Source\PSoC4/cyfitter_cfg.c **** * Parameters:  
 232:.\Generated_Source\PSoC4/cyfitter_cfg.c **** *   void
 233:.\Generated_Source\PSoC4/cyfitter_cfg.c **** *
 234:.\Generated_Source\PSoC4/cyfitter_cfg.c **** * Return:
 235:.\Generated_Source\PSoC4/cyfitter_cfg.c **** *   void
 236:.\Generated_Source\PSoC4/cyfitter_cfg.c **** *
 237:.\Generated_Source\PSoC4/cyfitter_cfg.c **** *******************************************************************************/
 238:.\Generated_Source\PSoC4/cyfitter_cfg.c **** CY_CFG_SECTION
 239:.\Generated_Source\PSoC4/cyfitter_cfg.c **** void cyfitter_cfg(void)
 240:.\Generated_Source\PSoC4/cyfitter_cfg.c **** {
 438              		.loc 1 240 0
 439              		.cfi_startproc
 440 0000 F8B5     		push	{r3, r4, r5, r6, r7, lr}
 441              		.cfi_def_cfa_offset 24
 442              		.cfi_offset 3, -24
 443              		.cfi_offset 4, -20
 444              		.cfi_offset 5, -16
 445              		.cfi_offset 6, -12
 446              		.cfi_offset 7, -8
 447              		.cfi_offset 14, -4
 241:.\Generated_Source\PSoC4/cyfitter_cfg.c **** 	/* Disable interrupts by default. Let user enable if/when they want. */
ARM GAS  C:\Users\zozo\AppData\Local\Temp\ccb2ix8M.s 			page 38


 242:.\Generated_Source\PSoC4/cyfitter_cfg.c **** 	CyGlobalIntDisable;
 448              		.loc 1 242 0
 449              	@ 242 ".\Generated_Source\PSoC4\cyfitter_cfg.c" 1
 450 0002 72B6     		CPSID   i
 451              	@ 0 "" 2
 452              		.code	16
 453              	.LBB10:
 454              	.LBB11:
 455              	.LBB12:
 456              	.LBB13:
  62:.\Generated_Source\PSoC4/cyfitter_cfg.c **** }
 457              		.loc 1 62 0
 458 0004 8026     		mov	r6, #128
 459              	.LBE13:
 460              	.LBE12:
 461              	.LBE11:
 462              	.LBE10:
 243:.\Generated_Source\PSoC4/cyfitter_cfg.c **** 
 244:.\Generated_Source\PSoC4/cyfitter_cfg.c **** 	CY_SET_XTND_REG32((void CYFAR *)(CYREG_BLE_BLESS_LL_DSM_CTRL), 0x00000000u);
 463              		.loc 1 244 0
 464 0006 0024     		mov	r4, #0
 465 0008 414D     		ldr	r5, .L2
 466              	.LBB20:
 467              	.LBB18:
 468              	.LBB16:
 469              	.LBB14:
  62:.\Generated_Source\PSoC4/cyfitter_cfg.c **** }
 470              		.loc 1 62 0
 471 000a F600     		lsl	r6, r6, #3
 472              	.LBE14:
 473              	.LBE16:
 474              	.LBE18:
 475              	.LBE20:
 476              		.loc 1 244 0
 477 000c 2C60     		str	r4, [r5]
 478              	.LVL0:
 479              	.LBB21:
 480              	.LBB19:
 481              	.LBB17:
 482              	.LBB15:
  62:.\Generated_Source\PSoC4/cyfitter_cfg.c **** }
 483              		.loc 1 62 0
 484 000e 211C     		mov	r1, r4
 485 0010 321C     		mov	r2, r6
 486 0012 4048     		ldr	r0, .L2+4
 487 0014 FFF7FEFF 		bl	memset
 488              	.LVL1:
 489 0018 211C     		mov	r1, r4
 490 001a 321C     		mov	r2, r6
 491 001c 3E48     		ldr	r0, .L2+8
 492 001e FFF7FEFF 		bl	memset
 493              	.LVL2:
 494              	.LBE15:
 495              	.LBE17:
 496              	.LBE19:
 245:.\Generated_Source\PSoC4/cyfitter_cfg.c **** 
 246:.\Generated_Source\PSoC4/cyfitter_cfg.c **** 	{
ARM GAS  C:\Users\zozo\AppData\Local\Temp\ccb2ix8M.s 			page 39


 247:.\Generated_Source\PSoC4/cyfitter_cfg.c **** 
 248:.\Generated_Source\PSoC4/cyfitter_cfg.c **** 		CYPACKED typedef struct {
 249:.\Generated_Source\PSoC4/cyfitter_cfg.c **** 			void CYFAR *address;
 250:.\Generated_Source\PSoC4/cyfitter_cfg.c **** 			uint16 size;
 251:.\Generated_Source\PSoC4/cyfitter_cfg.c **** 		} CYPACKED_ATTR cfg_memset_t;
 252:.\Generated_Source\PSoC4/cyfitter_cfg.c **** 
 253:.\Generated_Source\PSoC4/cyfitter_cfg.c **** 		static const cfg_memset_t CYCODE cfg_memset_list [] = {
 254:.\Generated_Source\PSoC4/cyfitter_cfg.c **** 			/* address, size */
 255:.\Generated_Source\PSoC4/cyfitter_cfg.c **** 			{(void CYFAR *)(CYDEV_UDB_P0_U0_BASE), 1024u},
 256:.\Generated_Source\PSoC4/cyfitter_cfg.c **** 			{(void CYFAR *)(CYDEV_UDB_DSI0_BASE), 1024u},
 257:.\Generated_Source\PSoC4/cyfitter_cfg.c **** 		};
 258:.\Generated_Source\PSoC4/cyfitter_cfg.c **** 
 259:.\Generated_Source\PSoC4/cyfitter_cfg.c **** 		uint8 CYDATA i;
 260:.\Generated_Source\PSoC4/cyfitter_cfg.c **** 
 261:.\Generated_Source\PSoC4/cyfitter_cfg.c **** 		/* Zero out critical memory blocks before beginning configuration */
 262:.\Generated_Source\PSoC4/cyfitter_cfg.c **** 		for (i = 0u; i < (sizeof(cfg_memset_list)/sizeof(cfg_memset_list[0])); i++)
 263:.\Generated_Source\PSoC4/cyfitter_cfg.c **** 		{
 264:.\Generated_Source\PSoC4/cyfitter_cfg.c **** 			const cfg_memset_t CYCODE * CYDATA ms = &cfg_memset_list[i];
 265:.\Generated_Source\PSoC4/cyfitter_cfg.c **** 			CYMEMZERO(ms->address, (size_t)(uint32)(ms->size));
 266:.\Generated_Source\PSoC4/cyfitter_cfg.c **** 		}
 267:.\Generated_Source\PSoC4/cyfitter_cfg.c **** 
 268:.\Generated_Source\PSoC4/cyfitter_cfg.c **** 		/* FORCED_HSIOM Starting address: CYDEV_HSIOM_PORT_SEL0 */
 269:.\Generated_Source\PSoC4/cyfitter_cfg.c **** 		CY_SET_XTND_REG32((void CYFAR *)(CYREG_HSIOM_PORT_SEL0), 0x00000000u);
 497              		.loc 1 269 0
 498 0022 3E4B     		ldr	r3, .L2+12
 270:.\Generated_Source\PSoC4/cyfitter_cfg.c **** 
 271:.\Generated_Source\PSoC4/cyfitter_cfg.c **** 		/* IOPINS0_0 Starting address: CYDEV_GPIO_PRT0_PC */
 272:.\Generated_Source\PSoC4/cyfitter_cfg.c **** 		CY_SET_XTND_REG32((void CYFAR *)(CYREG_GPIO_PRT0_PC), 0x00000000u);
 273:.\Generated_Source\PSoC4/cyfitter_cfg.c **** 
 274:.\Generated_Source\PSoC4/cyfitter_cfg.c **** 		/* UDB_PA_1 Starting address: CYDEV_UDB_PA1_BASE */
 275:.\Generated_Source\PSoC4/cyfitter_cfg.c **** 		CY_SET_XTND_REG32((void CYFAR *)(CYDEV_UDB_PA1_BASE), 0x00990000u);
 276:.\Generated_Source\PSoC4/cyfitter_cfg.c **** 
 277:.\Generated_Source\PSoC4/cyfitter_cfg.c **** 		/* UDB_PA_2 Starting address: CYDEV_UDB_PA2_BASE */
 278:.\Generated_Source\PSoC4/cyfitter_cfg.c **** 		CY_SET_XTND_REG32((void CYFAR *)(CYDEV_UDB_PA2_BASE), 0x00990000u);
 279:.\Generated_Source\PSoC4/cyfitter_cfg.c **** 
 280:.\Generated_Source\PSoC4/cyfitter_cfg.c **** 		/* UDB_PA_3 Starting address: CYDEV_UDB_PA3_BASE */
 281:.\Generated_Source\PSoC4/cyfitter_cfg.c **** 		CY_SET_XTND_REG32((void CYFAR *)(CYDEV_UDB_PA3_BASE), 0x00990000u);
 282:.\Generated_Source\PSoC4/cyfitter_cfg.c **** 
 283:.\Generated_Source\PSoC4/cyfitter_cfg.c **** 		/* Enable digital routing */
 284:.\Generated_Source\PSoC4/cyfitter_cfg.c **** 		CY_SET_XTND_REG8((void *)CYREG_UDB_UDBIF_BANK_CTL, CY_GET_XTND_REG8((void *)CYREG_UDB_UDBIF_BANK_
 499              		.loc 1 284 0
 500 0024 0221     		mov	r1, #2
 269:.\Generated_Source\PSoC4/cyfitter_cfg.c **** 
 501              		.loc 1 269 0
 502 0026 1C60     		str	r4, [r3]
 272:.\Generated_Source\PSoC4/cyfitter_cfg.c **** 
 503              		.loc 1 272 0
 504 0028 3D4B     		ldr	r3, .L2+16
 285:.\Generated_Source\PSoC4/cyfitter_cfg.c **** 
 286:.\Generated_Source\PSoC4/cyfitter_cfg.c **** 		/* Enable UDB array */
 287:.\Generated_Source\PSoC4/cyfitter_cfg.c **** 		CY_SET_XTND_REG8((void *)CYREG_UDB_UDBIF_WAIT_CFG, (uint8)((CY_GET_XTND_REG8((void *)CYREG_UDB_UD
 505              		.loc 1 287 0
 506 002a 3C20     		mov	r0, #60
 272:.\Generated_Source\PSoC4/cyfitter_cfg.c **** 
 507              		.loc 1 272 0
 508 002c 1C60     		str	r4, [r3]
 275:.\Generated_Source\PSoC4/cyfitter_cfg.c **** 
ARM GAS  C:\Users\zozo\AppData\Local\Temp\ccb2ix8M.s 			page 40


 509              		.loc 1 275 0
 510 002e 9923     		mov	r3, #153
 511 0030 3C4A     		ldr	r2, .L2+20
 512 0032 1B04     		lsl	r3, r3, #16
 513 0034 1360     		str	r3, [r2]
 278:.\Generated_Source\PSoC4/cyfitter_cfg.c **** 
 514              		.loc 1 278 0
 515 0036 3C4A     		ldr	r2, .L2+24
 516              	.LBE21:
 517              	.LBB22:
 518              	.LBB23:
 149:.\Generated_Source\PSoC4/cyfitter_cfg.c **** 
 519              		.loc 1 149 0
 520 0038 3C4E     		ldr	r6, .L2+28
 521              	.LBE23:
 522              	.LBE22:
 523              	.LBB27:
 278:.\Generated_Source\PSoC4/cyfitter_cfg.c **** 
 524              		.loc 1 278 0
 525 003a 1360     		str	r3, [r2]
 281:.\Generated_Source\PSoC4/cyfitter_cfg.c **** 
 526              		.loc 1 281 0
 527 003c 3C4A     		ldr	r2, .L2+32
 528              	.LBE27:
 529              	.LBB28:
 530              	.LBB24:
 162:.\Generated_Source\PSoC4/cyfitter_cfg.c **** 
 531              		.loc 1 162 0
 532 003e 3D4F     		ldr	r7, .L2+36
 533              	.LBE24:
 534              	.LBE28:
 535              	.LBB29:
 281:.\Generated_Source\PSoC4/cyfitter_cfg.c **** 
 536              		.loc 1 281 0
 537 0040 1360     		str	r3, [r2]
 284:.\Generated_Source\PSoC4/cyfitter_cfg.c **** 
 538              		.loc 1 284 0
 539 0042 3D4A     		ldr	r2, .L2+40
 540              	.LBE29:
 288:.\Generated_Source\PSoC4/cyfitter_cfg.c **** 		CY_SET_XTND_REG8((void *)CYREG_UDB_UDBIF_BANK_CTL, (uint8)(CY_GET_XTND_REG8((void *)CYREG_UDB_UDB
 289:.\Generated_Source\PSoC4/cyfitter_cfg.c **** 	}
 290:.\Generated_Source\PSoC4/cyfitter_cfg.c **** 
 291:.\Generated_Source\PSoC4/cyfitter_cfg.c **** 	/* Perform second pass device configuration. These items must be configured in specific order afte
 292:.\Generated_Source\PSoC4/cyfitter_cfg.c **** 	/* IOPINS0_1 Starting address: CYDEV_GPIO_PRT1_BASE */
 293:.\Generated_Source\PSoC4/cyfitter_cfg.c **** 	CY_SET_XTND_REG32((void CYFAR *)(CYDEV_GPIO_PRT1_BASE), 0x00000020u);
 294:.\Generated_Source\PSoC4/cyfitter_cfg.c **** 	CY_SET_XTND_REG32((void CYFAR *)(CYREG_GPIO_PRT1_PC), 0x00030000u);
 295:.\Generated_Source\PSoC4/cyfitter_cfg.c **** 
 296:.\Generated_Source\PSoC4/cyfitter_cfg.c **** 	/* IOPINS0_2 Starting address: CYDEV_GPIO_PRT2_BASE */
 297:.\Generated_Source\PSoC4/cyfitter_cfg.c **** 	CY_SET_XTND_REG32((void CYFAR *)(CYDEV_GPIO_PRT2_BASE), 0x000000C0u);
 298:.\Generated_Source\PSoC4/cyfitter_cfg.c **** 	CY_SET_XTND_REG32((void CYFAR *)(CYREG_GPIO_PRT2_PC), 0x00580000u);
 299:.\Generated_Source\PSoC4/cyfitter_cfg.c **** 	CY_SET_XTND_REG32((void CYFAR *)(CYREG_GPIO_PRT2_INTR_CFG), 0x00008000u);
 300:.\Generated_Source\PSoC4/cyfitter_cfg.c **** 
 301:.\Generated_Source\PSoC4/cyfitter_cfg.c **** 	/* IOPINS0_3 Starting address: CYDEV_GPIO_PRT3_BASE */
 302:.\Generated_Source\PSoC4/cyfitter_cfg.c **** 	CY_SET_XTND_REG32((void CYFAR *)(CYDEV_GPIO_PRT3_BASE), 0x000000C0u);
 303:.\Generated_Source\PSoC4/cyfitter_cfg.c **** 	CY_SET_XTND_REG32((void CYFAR *)(CYREG_GPIO_PRT3_PC), 0x00D80000u);
 304:.\Generated_Source\PSoC4/cyfitter_cfg.c **** 
 305:.\Generated_Source\PSoC4/cyfitter_cfg.c **** 
ARM GAS  C:\Users\zozo\AppData\Local\Temp\ccb2ix8M.s 			page 41


 306:.\Generated_Source\PSoC4/cyfitter_cfg.c **** 	/* Setup clocks based on selections from Clock DWR */
 307:.\Generated_Source\PSoC4/cyfitter_cfg.c **** 	ClockSetup();
 308:.\Generated_Source\PSoC4/cyfitter_cfg.c **** 
 309:.\Generated_Source\PSoC4/cyfitter_cfg.c **** 	/* Perform basic analog initialization to defaults */
 310:.\Generated_Source\PSoC4/cyfitter_cfg.c **** 	AnalogSetDefault();
 311:.\Generated_Source\PSoC4/cyfitter_cfg.c **** 
 312:.\Generated_Source\PSoC4/cyfitter_cfg.c **** }
 541              		.loc 1 312 0
 542              		@ sp needed
 543              	.LBB30:
 284:.\Generated_Source\PSoC4/cyfitter_cfg.c **** 
 544              		.loc 1 284 0
 545 0044 1378     		ldrb	r3, [r2]
 546 0046 0B43     		orr	r3, r1
 287:.\Generated_Source\PSoC4/cyfitter_cfg.c **** 		CY_SET_XTND_REG8((void *)CYREG_UDB_UDBIF_BANK_CTL, (uint8)(CY_GET_XTND_REG8((void *)CYREG_UDB_UDB
 547              		.loc 1 287 0
 548 0048 3C49     		ldr	r1, .L2+44
 284:.\Generated_Source\PSoC4/cyfitter_cfg.c **** 
 549              		.loc 1 284 0
 550 004a 1370     		strb	r3, [r2]
 287:.\Generated_Source\PSoC4/cyfitter_cfg.c **** 		CY_SET_XTND_REG8((void *)CYREG_UDB_UDBIF_BANK_CTL, (uint8)(CY_GET_XTND_REG8((void *)CYREG_UDB_UDB
 551              		.loc 1 287 0
 552 004c 0B78     		ldrb	r3, [r1]
 553 004e 8343     		bic	r3, r0
 554 0050 2838     		sub	r0, r0, #40
 555 0052 0343     		orr	r3, r0
 556 0054 0B70     		strb	r3, [r1]
 288:.\Generated_Source\PSoC4/cyfitter_cfg.c **** 		CY_SET_XTND_REG8((void *)CYREG_UDB_UDBIF_BANK_CTL, (uint8)(CY_GET_XTND_REG8((void *)CYREG_UDB_UDB
 557              		.loc 1 288 0
 558 0056 1621     		mov	r1, #22
 559 0058 1378     		ldrb	r3, [r2]
 560 005a 0B43     		orr	r3, r1
 561 005c 1370     		strb	r3, [r2]
 562              	.LBE30:
 293:.\Generated_Source\PSoC4/cyfitter_cfg.c **** 	CY_SET_XTND_REG32((void CYFAR *)(CYREG_GPIO_PRT1_PC), 0x00030000u);
 563              		.loc 1 293 0
 564 005e 2022     		mov	r2, #32
 565 0060 374B     		ldr	r3, .L2+48
 298:.\Generated_Source\PSoC4/cyfitter_cfg.c **** 	CY_SET_XTND_REG32((void CYFAR *)(CYREG_GPIO_PRT2_INTR_CFG), 0x00008000u);
 566              		.loc 1 298 0
 567 0062 B021     		mov	r1, #176
 293:.\Generated_Source\PSoC4/cyfitter_cfg.c **** 	CY_SET_XTND_REG32((void CYFAR *)(CYREG_GPIO_PRT1_PC), 0x00030000u);
 568              		.loc 1 293 0
 569 0064 1A60     		str	r2, [r3]
 294:.\Generated_Source\PSoC4/cyfitter_cfg.c **** 
 570              		.loc 1 294 0
 571 0066 C022     		mov	r2, #192
 572 0068 364B     		ldr	r3, .L2+52
 573 006a 9202     		lsl	r2, r2, #10
 574 006c 1A60     		str	r2, [r3]
 297:.\Generated_Source\PSoC4/cyfitter_cfg.c **** 	CY_SET_XTND_REG32((void CYFAR *)(CYREG_GPIO_PRT2_PC), 0x00580000u);
 575              		.loc 1 297 0
 576 006e C023     		mov	r3, #192
 577 0070 354A     		ldr	r2, .L2+56
 298:.\Generated_Source\PSoC4/cyfitter_cfg.c **** 	CY_SET_XTND_REG32((void CYFAR *)(CYREG_GPIO_PRT2_INTR_CFG), 0x00008000u);
 578              		.loc 1 298 0
 579 0072 C903     		lsl	r1, r1, #15
ARM GAS  C:\Users\zozo\AppData\Local\Temp\ccb2ix8M.s 			page 42


 297:.\Generated_Source\PSoC4/cyfitter_cfg.c **** 	CY_SET_XTND_REG32((void CYFAR *)(CYREG_GPIO_PRT2_PC), 0x00580000u);
 580              		.loc 1 297 0
 581 0074 1360     		str	r3, [r2]
 298:.\Generated_Source\PSoC4/cyfitter_cfg.c **** 	CY_SET_XTND_REG32((void CYFAR *)(CYREG_GPIO_PRT2_INTR_CFG), 0x00008000u);
 582              		.loc 1 298 0
 583 0076 354A     		ldr	r2, .L2+60
 584 0078 1160     		str	r1, [r2]
 299:.\Generated_Source\PSoC4/cyfitter_cfg.c **** 
 585              		.loc 1 299 0
 586 007a 8021     		mov	r1, #128
 587 007c 344A     		ldr	r2, .L2+64
 588 007e 0902     		lsl	r1, r1, #8
 589 0080 1160     		str	r1, [r2]
 302:.\Generated_Source\PSoC4/cyfitter_cfg.c **** 	CY_SET_XTND_REG32((void CYFAR *)(CYREG_GPIO_PRT3_PC), 0x00D80000u);
 590              		.loc 1 302 0
 591 0082 344A     		ldr	r2, .L2+68
 592 0084 1360     		str	r3, [r2]
 303:.\Generated_Source\PSoC4/cyfitter_cfg.c **** 
 593              		.loc 1 303 0
 594 0086 D822     		mov	r2, #216
 595 0088 334B     		ldr	r3, .L2+72
 596 008a 1204     		lsl	r2, r2, #16
 597 008c 1A60     		str	r2, [r3]
 598              	.LBB31:
 599              	.LBB25:
 149:.\Generated_Source\PSoC4/cyfitter_cfg.c **** 
 600              		.loc 1 149 0
 601 008e 1223     		mov	r3, #18
 602 0090 3360     		str	r3, [r6]
 152:.\Generated_Source\PSoC4/cyfitter_cfg.c **** 	CyDelayCycles(12000000u); /* WCO may take up to 500ms to start */
 603              		.loc 1 152 0
 604 0092 FFF7FEFF 		bl	CySysClkWcoStart
 605              	.LVL3:
 153:.\Generated_Source\PSoC4/cyfitter_cfg.c **** 	(void)CySysClkWcoSetPowerMode(CY_SYS_CLK_WCO_LPM);    /* Switch to the low power mode */
 606              		.loc 1 153 0
 607 0096 3148     		ldr	r0, .L2+76
 608 0098 FFF7FEFF 		bl	CyDelayCycles
 609              	.LVL4:
 154:.\Generated_Source\PSoC4/cyfitter_cfg.c **** 
 610              		.loc 1 154 0
 611 009c 0120     		mov	r0, #1
 612 009e FFF7FEFF 		bl	CySysClkWcoSetPowerMode
 613              	.LVL5:
 157:.\Generated_Source\PSoC4/cyfitter_cfg.c **** 	/* CYDEV_CLK_ILO_CONFIG Starting address: CYDEV_CLK_ILO_CONFIG */
 614              		.loc 1 157 0
 615 00a2 0C20     		mov	r0, #12
 616 00a4 FFF7FEFF 		bl	CySysClkWriteImoFreq
 617              	.LVL6:
 159:.\Generated_Source\PSoC4/cyfitter_cfg.c **** 
 618              		.loc 1 159 0
 619 00a8 2D4A     		ldr	r2, .L2+80
 620 00aa 2E4B     		ldr	r3, .L2+84
 166:.\Generated_Source\PSoC4/cyfitter_cfg.c **** 	CY_SET_XTND_REG32((void CYFAR *)(CYREG_BLE_BLERD_BB_XO_CAPTRIM), 0x00003E2Du);
 621              		.loc 1 166 0
 622 00ac 0221     		mov	r1, #2
 159:.\Generated_Source\PSoC4/cyfitter_cfg.c **** 
 623              		.loc 1 159 0
ARM GAS  C:\Users\zozo\AppData\Local\Temp\ccb2ix8M.s 			page 43


 624 00ae 1A60     		str	r2, [r3]
 162:.\Generated_Source\PSoC4/cyfitter_cfg.c **** 
 625              		.loc 1 162 0
 626 00b0 8023     		mov	r3, #128
 166:.\Generated_Source\PSoC4/cyfitter_cfg.c **** 	CY_SET_XTND_REG32((void CYFAR *)(CYREG_BLE_BLERD_BB_XO_CAPTRIM), 0x00003E2Du);
 627              		.loc 1 166 0
 628 00b2 2D4A     		ldr	r2, .L2+88
 162:.\Generated_Source\PSoC4/cyfitter_cfg.c **** 
 629              		.loc 1 162 0
 630 00b4 DB05     		lsl	r3, r3, #23
 631 00b6 3B60     		str	r3, [r7]
 166:.\Generated_Source\PSoC4/cyfitter_cfg.c **** 	CY_SET_XTND_REG32((void CYFAR *)(CYREG_BLE_BLERD_BB_XO_CAPTRIM), 0x00003E2Du);
 632              		.loc 1 166 0
 633 00b8 1368     		ldr	r3, [r2]
 171:.\Generated_Source\PSoC4/cyfitter_cfg.c **** 	CyDelayUs(1500u); /* Wait to stabalize */
 634              		.loc 1 171 0
 635 00ba FA20     		mov	r0, #250
 166:.\Generated_Source\PSoC4/cyfitter_cfg.c **** 	CY_SET_XTND_REG32((void CYFAR *)(CYREG_BLE_BLERD_BB_XO_CAPTRIM), 0x00003E2Du);
 636              		.loc 1 166 0
 637 00bc 0B43     		orr	r3, r1
 638 00be 1360     		str	r3, [r2]
 167:.\Generated_Source\PSoC4/cyfitter_cfg.c **** 	/* Disable Crystal Stable Interrupt before enabling ECO */
 639              		.loc 1 167 0
 640 00c0 2A4A     		ldr	r2, .L2+92
 641 00c2 2B4B     		ldr	r3, .L2+96
 171:.\Generated_Source\PSoC4/cyfitter_cfg.c **** 	CyDelayUs(1500u); /* Wait to stabalize */
 642              		.loc 1 171 0
 643 00c4 C000     		lsl	r0, r0, #3
 167:.\Generated_Source\PSoC4/cyfitter_cfg.c **** 	/* Disable Crystal Stable Interrupt before enabling ECO */
 644              		.loc 1 167 0
 645 00c6 1A60     		str	r2, [r3]
 169:.\Generated_Source\PSoC4/cyfitter_cfg.c **** 	/* Start the ECO and do not check status since it is not needed for HFCLK */
 646              		.loc 1 169 0
 647 00c8 0822     		mov	r2, #8
 648 00ca 2B68     		ldr	r3, [r5]
 649 00cc 9343     		bic	r3, r2
 650 00ce 2B60     		str	r3, [r5]
 171:.\Generated_Source\PSoC4/cyfitter_cfg.c **** 	CyDelayUs(1500u); /* Wait to stabalize */
 651              		.loc 1 171 0
 652 00d0 FFF7FEFF 		bl	CySysClkEcoStart
 653              	.LVL7:
 172:.\Generated_Source\PSoC4/cyfitter_cfg.c **** 
 654              		.loc 1 172 0
 655 00d4 2748     		ldr	r0, .L2+100
 656 00d6 FFF7FEFF 		bl	CyDelayUs
 657              	.LVL8:
 175:.\Generated_Source\PSoC4/cyfitter_cfg.c **** 	CY_SET_REG32((void *)CYREG_PERI_DIV_CMD, 0x8000FF40u);
 658              		.loc 1 175 0
 659 00da 274A     		ldr	r2, .L2+104
 660 00dc 274B     		ldr	r3, .L2+108
 661 00de 1A60     		str	r2, [r3]
 176:.\Generated_Source\PSoC4/cyfitter_cfg.c **** 
 662              		.loc 1 176 0
 663 00e0 274A     		ldr	r2, .L2+112
 664 00e2 284B     		ldr	r3, .L2+116
 665 00e4 1A60     		str	r2, [r3]
 179:.\Generated_Source\PSoC4/cyfitter_cfg.c **** 
ARM GAS  C:\Users\zozo\AppData\Local\Temp\ccb2ix8M.s 			page 44


 666              		.loc 1 179 0
 667 00e6 8022     		mov	r2, #128
 668 00e8 274B     		ldr	r3, .L2+120
 669 00ea 1206     		lsl	r2, r2, #24
 670 00ec 1A60     		str	r2, [r3]
 185:.\Generated_Source\PSoC4/cyfitter_cfg.c **** 
 671              		.loc 1 185 0
 672 00ee 4022     		mov	r2, #64
 182:.\Generated_Source\PSoC4/cyfitter_cfg.c **** 
 673              		.loc 1 182 0
 674 00f0 264B     		ldr	r3, .L2+124
 675 00f2 1C60     		str	r4, [r3]
 185:.\Generated_Source\PSoC4/cyfitter_cfg.c **** 
 676              		.loc 1 185 0
 677 00f4 264B     		ldr	r3, .L2+128
 678 00f6 1A60     		str	r2, [r3]
 187:.\Generated_Source\PSoC4/cyfitter_cfg.c **** 	/* Set Flash Cycles based on newly configured 12.00MHz HFCLK. */
 679              		.loc 1 187 0
 680 00f8 8023     		mov	r3, #128
 681 00fa DB05     		lsl	r3, r3, #23
 682 00fc 3B60     		str	r3, [r7]
 683              	.LBE25:
 684              	.LBE31:
 685              	.LBB32:
 686              	.LBB33:
 214:.\Generated_Source\PSoC4/cyfitter_cfg.c **** 	CY_SET_XTND_REG32((void CYFAR *)CYREG_CTBM1_DFT_CTRL, 0x00000003u);
 687              		.loc 1 214 0
 688 00fe 0323     		mov	r3, #3
 689 0100 244A     		ldr	r2, .L2+132
 690              	.LBE33:
 691              	.LBE32:
 692              	.LBB35:
 693              	.LBB26:
 189:.\Generated_Source\PSoC4/cyfitter_cfg.c **** }
 694              		.loc 1 189 0
 695 0102 3460     		str	r4, [r6]
 696              	.LBE26:
 697              	.LBE35:
 698              	.LBB36:
 699              	.LBB34:
 214:.\Generated_Source\PSoC4/cyfitter_cfg.c **** 	CY_SET_XTND_REG32((void CYFAR *)CYREG_CTBM1_DFT_CTRL, 0x00000003u);
 700              		.loc 1 214 0
 701 0104 1360     		str	r3, [r2]
 215:.\Generated_Source\PSoC4/cyfitter_cfg.c **** 	CY_SET_XTND_REG32((void CYFAR *)CYREG_PASS_DSAB_DSAB_CTRL, 0x00000000u);
 702              		.loc 1 215 0
 703 0106 244A     		ldr	r2, .L2+136
 704 0108 1360     		str	r3, [r2]
 216:.\Generated_Source\PSoC4/cyfitter_cfg.c **** }
 705              		.loc 1 216 0
 706 010a 244B     		ldr	r3, .L2+140
 707 010c 1C60     		str	r4, [r3]
 708              	.LBE34:
 709              	.LBE36:
 710              		.loc 1 312 0
 711 010e F8BD     		pop	{r3, r4, r5, r6, r7, pc}
 712              	.L3:
 713              		.align	2
ARM GAS  C:\Users\zozo\AppData\Local\Temp\ccb2ix8M.s 			page 45


 714              	.L2:
 715 0110 6CF02E40 		.word	1076818028
 716 0114 00300F40 		.word	1074737152
 717 0118 00400F40 		.word	1074741248
 718 011c 00000240 		.word	1073872896
 719 0120 08000440 		.word	1074003976
 720 0124 10500F40 		.word	1074745360
 721 0128 20500F40 		.word	1074745376
 722 012c 30001040 		.word	1074790448
 723 0130 30500F40 		.word	1074745392
 724 0134 0C020B40 		.word	1074463244
 725 0138 00700F40 		.word	1074753536
 726 013c 01700F40 		.word	1074753537
 727 0140 00010440 		.word	1074004224
 728 0144 08010440 		.word	1074004232
 729 0148 00020440 		.word	1074004480
 730 014c 08020440 		.word	1074004488
 731 0150 0C020440 		.word	1074004492
 732 0154 00030440 		.word	1074004736
 733 0158 08030440 		.word	1074004744
 734 015c 001BB700 		.word	12000000
 735 0160 06000080 		.word	-2147483642
 736 0164 04010B40 		.word	1074462980
 737 0168 78002E40 		.word	1076756600
 738 016c 2D3E0000 		.word	15917
 739 0170 7C002E40 		.word	1076756604
 740 0174 DC050000 		.word	1500
 741 0178 00DF2E00 		.word	3071744
 742 017c 00030140 		.word	1073808128
 743 0180 40FF0080 		.word	-2147418304
 744 0184 00000140 		.word	1073807360
 745 0188 08010B40 		.word	1074462984
 746 018c 00010B40 		.word	1074462976
 747 0190 1C010140 		.word	1073807644
 748 0194 30003040 		.word	1076887600
 749 0198 30003140 		.word	1076953136
 750 019c 000E3F40 		.word	1077874176
 751              		.cfi_endproc
 752              	.LFE7:
 753              		.size	cyfitter_cfg, .-cyfitter_cfg
 754              		.text
 755              	.Letext0:
 756              		.file 2 "d:\\program files (x86)\\cypress\\psoc creator\\3.3\\psoc creator\\import\\gnu\\arm\\4.9.
 757              		.file 3 ".\\Generated_Source\\PSoC4\\cytypes.h"
 758              		.file 4 ".\\Generated_Source\\PSoC4\\CyLib.h"
 759              		.file 5 ".\\Generated_Source\\PSoC4\\CyLFClk.h"