ARM GAS  C:\Users\zozo\AppData\Local\Temp\ccy30qtq.s 			page 1


   1              		.cpu cortex-m0
   2              		.fpu softvfp
   3              		.eabi_attribute 20, 1
   4              		.eabi_attribute 21, 1
   5              		.eabi_attribute 23, 3
   6              		.eabi_attribute 24, 1
   7              		.eabi_attribute 25, 1
   8              		.eabi_attribute 26, 1
   9              		.eabi_attribute 30, 4
  10              		.eabi_attribute 34, 0
  11              		.eabi_attribute 18, 4
  12              		.code	16
  13              		.file	"cyPm.c"
  14              		.text
  15              	.Ltext0:
  16              		.section	.gnu.lto_.profile.d9227dd5,"",%progbits
  17 0000 789C6366 		.ascii	"x\234cf```c\200\000F\206%L\375\214\000\004W\001A"
  17      60606063 
  17      80004686 
  17      254CFD8C 
  17      00045701 
  18              		.text
  19              		.section	.gnu.lto_.jmpfuncs.d9227dd5,"",%progbits
  20 0000 789C6366 		.ascii	"x\234cf\300\016\002\2404'\0203\202\021\003\023\204\305"
  20      C00E02A0 
  20      34271033 
  20      82110313 
  20      84C5
  21 0012 F49189F1 		.ascii	"\364\221\211\361\374\203\303\375</\230~2\001\005\031"
  21      FC83C3FD 
  21      3C2F987E 
  21      32010519 
  22 0022 97334A31 		.ascii	"\2273J100C\3240\260022\326\203X\254\014\014l\0201v\220"
  22      303043D4 
  22      30B03032 
  22      32D68358 
  22      AC0C0C6C 
  23 003a 3807541E 		.ascii	"8\007T\036\000\236\376\007\267"
  23      009EFE07 
  23      B7
  24              		.text
  25              		.section	.gnu.lto_.inline.d9227dd5,"",%progbits
  26 0000 789C6366 		.ascii	"x\234cf\300\016\034\030!4'\003\203\2048#\003\223\326"
  26      C00E1C18 
  26      21342703 
  26      83843823 
  26      0393D6
  27 0013 84134C0C 		.ascii	"\204\023L\014l\013\344\231@\202\214\014<\262@1\256\011"
  27      6C0BE499 
  27      40828C0C 
  27      3CB24031 
  27      AE09
  28 0025 7E702126 		.ascii	"~p!&n\240\360\004?\020\305\300\304\"n\010\224\226yp"
  28      6EA0F004 
  28      3F10C5C0 
  28      C4226E08 
  28      94967970 
ARM GAS  C:\Users\zozo\AppData\Local\Temp\ccy30qtq.s 			page 2


  29 0039 8B119B3C 		.ascii	"\213\021\233<#\230\303\300\314 f\200C\025#\027\224\315"
  29      2398C3C0 
  29      CC206680 
  29      43152317 
  29      94CD
  30 004b C0C2C027 		.ascii	"\300\302\300'\313\310\314\220\371\221\211\261q\331\356"
  30      CBC8CC90 
  30      F99189B1 
  30      71D9EE
  31 005a 1EF6174C 		.ascii	"\036\366\027L?\231\200.c\\\316(\305\300\220\001\241"
  31      3F99802E 
  31      635CCE28 
  31      C5C09001 
  31      A1
  32 006b 807C56A6 		.ascii	"\200|V\246\013\374\020CX\026\310\0130\260t\010s0\260"
  32      0BFC1043 
  32      5816C80B 
  32      30B07408 
  32      7330B0
  33 007e CCE06141 		.ascii	"\314\340aAw\031+\003/\007\320N\221\007\261p+\331\030"
  33      77192B03 
  33      2F07D04E 
  33      9107B170 
  33      2BD918
  34 0091 84158142 		.ascii	"\204\025\201B\022\017\272\260:\226\201\235AH\031(/5"
  34      120FBAB0 
  34      3A96819D 
  34      41481928 
  34      2F35
  35 00a3 E134421E 		.ascii	"\3414B\036\354>0\301\301 \000\322-t\241\007\273n\006"
  35      EC3E30C1 
  35      C12000D2 
  35      2D74A107 
  35      BB6E06
  36 00b6 00A3E325 		.ascii	"\000\243\343%\334"
  36      DC
  37              		.text
  38              		.section	.gnu.lto_.pureconst.d9227dd5,"",%progbits
  39 0000 789C6366 		.ascii	"x\234cf``\020f\200\000N\006)F+&+f+\026)V)6)v+\016)\000"
  39      60601066 
  39      80004E06 
  39      29462B26 
  39      2B662B16 
  40 001e 119201AE 		.ascii	"\021\222\001\256"
  41              		.text
  42              		.section	.gnu.lto_CySysPmHibPinsDisableInputBuf.d9227dd5,"",%progbits
  43 0000 789C6D94 		.ascii	"x\234m\224_HSQ\034\307\317\357\334?mml9\034\201\364"
  43      5F485351 
  43      1CC7CFEF 
  43      DC3F6D6D 
  43      6C391C81 
  44 0015 10BD882F 		.ascii	"\020\275\210/\353\245\207^z\352\241W\311\327A\205\015"
  44      EBA5875E 
  44      7AEAA157 
  44      C9D74185 
  44      0D
  45 0026 7A2949EA 		.ascii	"z)I\352!\010\274\313U\"\025c\225\364G\011\012)[\323"
ARM GAS  C:\Users\zozo\AppData\Local\Temp\ccy30qtq.s 			page 3


  45      2108BCCB 
  45      55221563 
  45      95F44709 
  45      0A295BD3 
  46 003a 9C599AAE 		.ascii	"\234Y\232\256nK\353M\251\227\221b\202,Y\221\240\010"
  46      6E4BEB4D 
  46      A9979162 
  46      822C5991 
  46      A008
  47 004c B541B27E 		.ascii	"\265A\262~\277{\217g\262{/\354{\366\347\374>\277\317"
  47      BF7B8F67 
  47      B27B2FEC 
  47      7BF6E7FC 
  47      3EBFCF
  48 005f FD6D3B0A 		.ascii	"\375m;\012s^M\370\3205\306\016\340\012\012\003\236\234"
  48      735E4DF8 
  48      D035C60E 
  48      E00A0A03 
  48      9E9C
  49 0071 632CEEE1 		.ascii	"c,\356\341\000\364\204\001\353\342\320\005?\371\006"
  49      00F48401 
  49      EBE2D005 
  49      3FF906
  50 0080 87A499BE 		.ascii	"\207\244\231\276\347k\0364\014c=\265\370\017\214;'+"
  50      E76B1E34 
  50      0C633DB5 
  50      F80F8C3B 
  50      272B
  51 0092 9CB14D6E 		.ascii	"\234\261Mn\203\340)43\334\265\221\330*\370\364\004\356"
  51      83E02934 
  51      33DCB591 
  51      D82AF8F4 
  51      04EE
  52 00a4 DA637F06 		.ascii	"\332c\177\006\317@\007\\GB\246Q\255\216\255\245\272"
  52      CF40075C 
  52      4742A651 
  52      AD8EADA5 
  52      BA
  53 00b5 5B8EECE5 		.ascii	"[\216\354\345\254\302\261\035\206F\241Sx(\274\024>\012"
  53      ACC2B11D 
  53      8646A153 
  53      7828BC14 
  53      3E0A
  54 00c7 3F458022 		.ascii	"?E\200\"H\321@\021\242h\244\010S0V\304\016$\372\203"
  54      48D14011 
  54      A268A408 
  54      533056C4 
  54      0E24FA83 
  55 00db 735A9505 		.ascii	"sZ\225\005\310\377\351]\315\034\247\246\1779Y/\226n"
  55      C8FFE95D 
  55      CD1CA7A6 
  55      7F39592F 
  55      966E
  56 00ed AF418957 		.ascii	"\257A\211W8\3571\222\206J\212\313\305\371/\036\353-"
  56      38EF3192 
  56      864A8ACB 
  56      C5F92F1E 
ARM GAS  C:\Users\zozo\AppData\Local\Temp\ccy30qtq.s 			page 4


  56      EB2D
  57 00ff 462FFB0B 		.ascii	"F/\373\013Of}\003\3600\236\200\012W`\010\232\3409\340"
  57      4F667D03 
  57      F0309E80 
  57      0A576008 
  57      9AE039E0 
  58 0113 5C200D03 		.ascii	"\\ \015\003\300\026\240\273\254\3338\305&\016\231\217"
  58      C016A0BB 
  58      ACDB38C5 
  58      260E998F 
  59 0123 F6513554 		.ascii	"\366Q5T\361\302\221\275\300\315\3307\005\264kgG\325"
  59      F1C291BD 
  59      C0CDD837 
  59      05B46B67 
  59      47D5
  60 0135 D9517576 		.ascii	"\331Quv\324 \203\035\207\255\216#\330\021\3730\3536"
  60      D420831D 
  60      87AD8E23 
  60      D811FB30 
  60      EB36
  61 0147 F211BBAD 		.ascii	"\362\021\273\255\206\025\331o+-\366M\\\021\310\321l"
  61      8615D96F 
  61      2B2DF64D 
  61      5C11C8D1 
  61      6C
  62 0158 6E2E50B3 		.ascii	"n.P\263~)\255G\353\254\211\340p\334\346\251\356<\015"
  62      7E29AD47 
  62      EBAC89E0 
  62      70DCE6A9 
  62      EE3C0D
  63 016b B2D269CC 		.ascii	"\262\322i\314r\322m\247\025\341\344\301\212\245\231"
  63      72D26DA7 
  63      15E1E4C1 
  63      8AA599
  64 017a A589802D 		.ascii	"\245\211\200-\225\020\220\311\315>\323[\223z%\245\306"
  64      951090C9 
  64      CD3ED35B 
  64      937A25A5 
  64      C6
  65 018b EBA4BC88 		.ascii	"\353\244\274\210pHI\240\352\016\324\340\265\264zcYy"
  65      704849A0 
  65      EA0ED4E0 
  65      B5B47A63 
  65      5979
  66 019d C5A40EDA 		.ascii	"\305\244\016\332T\037VL]\275Y\330m[]\023\220_\217\247"
  66      541F564C 
  66      5DBD59D8 
  66      6D5B5D13 
  66      905F8FA7 
  67 01b1 CFD7A426 		.ascii	"\317\327\244&\244\324d\235\224\037\011\016)\311S]y\032"
  67      A4D4649D 
  67      941F090E 
  67      29C9535D 
  67      791A
  68 01c3 BC954E53 		.ascii	"\274\225NS\226\223_LJ8\005h\332\361\273\253\3427\330"
  68      96935F4C 
  68      4A380568 
ARM GAS  C:\Users\zozo\AppData\Local\Temp\ccy30qtq.s 			page 5


  68      DAF1BBAB 
  68      E237D8
  69 01d6 2318BF1F 		.ascii	"#\030\277\037\230\327w\325\244\246\245T\256N*\210\010"
  69      98D777D5 
  69      A4A6A554 
  69      AE4E2A88 
  69      08
  70 01e7 E7D7B70D 		.ascii	"\347\327\267\015T\335\201\032\274\223V\357-\253\240"
  70      54DD811A 
  70      BC9356EF 
  70      2DABA0
  71 01f6 98D4619B 		.ascii	"\230\324a\233\332\200\025\267\312\203_\025\333\252W"
  71      DA8015B7 
  71      CA835F15 
  71      DBAA57
  72 0205 4086FB4A 		.ascii	"@\206\373J\367w\374\025Li\365\241\316*\204\010\207\225"
  72      F777FC15 
  72      4C69F5A1 
  72      CE2A8408 
  72      8795
  73 0217 04AAEE40 		.ascii	"\004\252\356@\015\362\322\352\243e\025\022\263\022V"
  73      0DF2D2EA 
  73      A3651512 
  73      B31256
  74 0226 8D58912B 		.ascii	"\215X\221+oe\304\254n\010Hz\275\377rMjFJ\315\326I\205"
  74      6F65C4AC 
  74      6E08487A 
  74      BDFF724D 
  74      6A464ACD 
  75 023d 91E09092 		.ascii	"\221\340\220\222<\325\225\247\301'\351\364\331r\012"
  75      3CD595A7 
  75      C127E9F4 
  75      D9720A
  76 024c B3EF1037 		.ascii	"\263\357\0207\307\347\375\004\240\223\255\210\007\015"
  76      C7E7FD04 
  76      A093AD88 
  76      070D
  77 025a 9E2D7858 		.ascii	"\236-xX\354\217D\217\305\316\305:O]\210\235>\321\326"
  77      EC8F448F 
  77      C5CEC53A 
  77      4F5D889D 
  77      3ED1D6
  78 026d 71B1B33D 		.ascii	"q\261\263=\026mm\3538z(\332~\251\365l\344\014\373\017"
  78      166D6DEB 
  78      387A28DA 
  78      7EA9F56C 
  78      E40CFB0F 
  79 0281 400FC6AB 		.ascii	"@\017\306\253"
  80              		.text
  81              		.section	.gnu.lto_CySysPmSleep.d9227dd5,"",%progbits
  82 0000 789C7D90 		.ascii	"x\234}\220OH\024Q\034\307\177\337\337\354\214C\202E"
  82      4F481451 
  82      1CC77FDF 
  82      DFEC8C43 
  82      8245
  83 0012 E0654FC2 		.ascii	"\340eO\302\036$\220=H\207\356\201\341ma\017^\026$\326"
  83      1E24903D 
ARM GAS  C:\Users\zozo\AppData\Local\Temp\ccy30qtq.s 			page 6


  83      4887EE81 
  83      E16D610F 
  83      5E1624D6 
  84 0026 39784863 		.ascii	"9xHcY\017\035\3047\273{\220\240X$P\210DA\251\374/X\320"
  84      590F1DC4 
  84      37BB7B90 
  84      A0582450 
  84      884441A9 
  85 003e A9294F12 		.ascii	"\251)O\022$\022j\214R\035VJO-\213\345(9\375\336L]\022"
  85      24126A8C 
  85      521D564A 
  85      4F2D8BE5 
  85      2839FDDE 
  86 0055 1A78F3DE 		.ascii	"\032x\363\336\373\361\375~\336\367\3673\350\342\227"
  86      FBF1FD7E 
  86      DEF7F733 
  86      E8E297
  87 0064 947504A2 		.ascii	"\224u\004\242\033\262\303 p\365=\221k3\240\017\004\032"
  87      1BB2C320 
  87      70F53D91 
  87      6B33A00F 
  87      041A
  88 0076 618CE090 		.ascii	"a\214\340\220\353\214\2527?\321\334>\253\224\372^z\347"
  88      EB8CAA37 
  88      3FD1DC3E 
  88      AB94FA5E 
  88      7AE7
  89 0088 663C044C 		.ascii	"f<\004L\324\340\230\203\247h'\021\355\036\236\372\246"
  89      D4E09883 
  89      A7682711 
  89      ED1E9EFA 
  89      A6
  90 0099 91823E1F 		.ascii	"\221\202>\037l\254=2R\323J\225\276\370/s\236;\245\316"
  90      6CAC3D32 
  90      52D34A95 
  90      BEF82F73 
  90      9E3BA5CE 
  91 00ad C3505CC0 		.ascii	"\303P\\\3003\030bDG\022\327\222\177\202\210\276^\371"
  91      33186244 
  91      4712D792 
  91      7F8288BE 
  91      5EF9
  92 00bf B5DB6C55 		.ascii	"\265\333lU\344\201+x\216T\314\306\034,\311\007]Y\276"
  92      E4812B78 
  92      8E54CCC6 
  92      1C2CC907 
  92      5D59BE
  93 00d2 EAA9306C 		.ascii	"\352\2510l,\274\361aKV\251$(`6\365\217\250&K\207>\220"
  93      2CBCF161 
  93      4B56A924 
  93      286036F5 
  93      8FA8264B 
  94 00e9 8BECC63E 		.ascii	"\213\354\306>\312\336\253Uh\300O6\204?\371\341\341\022"
  94      CADEAB55 
  94      68C04F36 
  94      843FF9E1 
  94      E112
ARM GAS  C:\Users\zozo\AppData\Local\Temp\ccy30qtq.s 			page 7


  95 00fb 0F9FA951 		.ascii	"\017\237\251Qe\007,\0014v\036\303\342N\320\0168zI\230"
  95      65072C01 
  95      34761EC3 
  95      E24ED00E 
  95      387A4998 
  96 010f 22261F6F 		.ascii	"\"&\037o\177\334??6csB\314\033\017^\3144}\343\200\315"
  96      7FDC3F3F 
  96      36637342 
  96      CC1B0F5E 
  96      CC347DE3 
  97 0125 AA5F562D 		.ascii	"\252_V-:\357\347\332\346\226\035\225\242\370\333\023"
  97      3AEFE7DA 
  97      E6961D95 
  97      A2F8DB13 
  98 0135 A53A9EE0 		.ascii	"\245:\236\340\261[\221\036-, \211EH{X\222\252\020\313"
  98      B15B911E 
  98      2D2C2089 
  98      45487B58 
  98      92AA10CB 
  99 0149 27568C33 		.ascii	"'V\2143c\342\327\361\327i\355\346\2630\014/\023\226"
  99      63E2D7F1 
  99      D769EDE6 
  99      B3300C2F 
  99      1396
 100 015b 452CEF8E 		.ascii	"E,\357\216E\211\377\307[\221\252Ph\017j}\273U\253\365"
 100      4589FFC7 
 100      5B91AA50 
 100      680F6A7D 
 100      BB55ABF5 
 101 016f 003B691F 		.ascii	"\000;i\037\025\357c\344\246\177\273mj\350\011aU\272"
 101      15EF63E4 
 101      A67FBB6D 
 101      6AE80961 
 101      55BA
 102 0181 95F602B6 		.ascii	"\225\366\002\266\351\023\\o\317\374k\256\3110df\242"
 102      E9135C6F 
 102      CFFC6BAE 
 102      C9306466 
 102      A2
 103 0192 694BE76E 		.ascii	"iK\347n9\003N\341v\321\351\353\315\016\016\025\362N"
 103      39034EE1 
 103      76D1E9EB 
 103      CD0E0E15 
 103      F24E
 104 01a4 2E931DBC 		.ascii	".\223\035\274y=\227\277\227\271\223\316SK\377@\321)"
 104      793D97BF 
 104      97B993CE 
 104      534BFF40 
 104      D129
 105 01b6 1486EE16 		.ascii	"\024\206\356\026\263E\021Y=]\335m\227\3507\315(\274"
 105      B3451159 
 105      3D5DDD6D 
 105      97E837CD 
 105      28BC
 106 01c8 B9       		.ascii	"\271"
 107              		.text
 108              		.section	.gnu.lto_CySysPmDeepSleep.d9227dd5,"",%progbits
ARM GAS  C:\Users\zozo\AppData\Local\Temp\ccy30qtq.s 			page 8


 109 0000 789C7D93 		.ascii	"x\234}\223[HTA\030\200\347\237\263\227\223g\325\255"
 109      5B485441 
 109      1880E79F 
 109      B3979367 
 109      D5AD
 110 0012 A06C0932 		.ascii	"\240l\0112|\210 |\210\236\353!Jz\223|\350E\212\330\226"
 110      7C88207C 
 110      889EEB21 
 110      4A7A937C 
 110      E8458AD8 
 111 0027 884C45D6 		.ascii	"\210LE\326\207\036\314Y\335.t5\313Z2\003)\311\274fj"
 111      871ECC59 
 111      DD2E7435 
 111      CB5A3203 
 111      29C9BC66 
 112 003c A6569E14 		.ascii	"\246V\236\024\362\002\271\226\244\244\242\213\227R\012"
 112      F202B996 
 112      A4A4A28B 
 112      97520A
 113 004b 6C5BCDB6 		.ascii	"l[\315\266\210\355\237\231]oQ\007v\316\234\331\371\277"
 113      88ED9F99 
 113      5D6F5107 
 113      76CE9CD9 
 113      F9BF
 114 005d F9FE9F7F 		.ascii	"\371\376\237\177\024\362\367c\303_\216\201\220}\370"
 114      14F2F763 
 114      C35F8E81 
 114      907DF8
 115 006c 0685002D 		.ascii	"\006\205\000-\350%\304\245R\000>!@r)\344\302\014\365"
 115      E825C4A5 
 115      52003E21 
 115      407229E4 
 115      C20CF5
 116 007f 5328D02B 		.ascii	"S(\320+=\332\2662\306\330\327\361\372\270\263qAJH\200"
 116      3DDAB632 
 116      C6D8D7F1 
 116      FAB8B371 
 116      414A4880 
 117 0093 4A0C3C84 		.ascii	"J\014<\204m\004\367\014\316\374\0342*\011\300\347S\335"
 117      6D04F70C 
 117      CEFC1C32 
 117      2A09C0E7 
 117      53DD
 118 00a5 0D379584 		.ascii	"\0157\225\204R\306\362|\345\023\2575\346an_(\264%\210"
 118      52C6F27C 
 118      E513AF35 
 118      E6616E5F 
 118      28B42588 
 119 00b9 EC725030 		.ascii	"\354rP0\022v\330`\273-,\202\001w|Uc\252\262S\0047\327"
 119      1276D860 
 119      BB2D2C82 
 119      01777C55 
 119      63AAB253 
 120 00d0 CCBDD1A6 		.ascii	"\314\275\321\246i\220\322x\376\331R\330\3451\361O\305"
 120      6990D278 
 120      FED952D8 
 120      E531F14F 
ARM GAS  C:\Users\zozo\AppData\Local\Temp\ccy30qtq.s 			page 9


 120      C5
 121 00e1 C03F2726 		.ascii	"\300?'&\374\345*\242\335\371\276\212\373\275\026\326"
 121      FCE52AA2 
 121      DDF9BE8A 
 121      FBBD16D6 
 122 00f1 15411BA0 		.ascii	"\025A\033\240B\242+\301\006U\260\014\356w\377\036\324"
 122      42A22BC1 
 122      0655B00C 
 122      EE77FF1E 
 122      D4
 123 0102 4C6EB4B7 		.ascii	"Ln\264\267\302#H\200jH\220\366P\003& \204FVk\327\351"
 123      C2234880 
 123      6A4890F6 
 123      50032620 
 123      8446566B 
 124 0118 2C140A78 		.ascii	",\024\012x\257O\357\206\365X\021\\6\220 5\032\371`\306"
 124      AF4FEF86 
 124      F558115C 
 124      36902035 
 124      1AF960C6 
 125 012c C1A4F259 		.ascii	"\301\244\362Y\024\0374>D\363\301\312\007B&\221\310\013"
 125      141F343E 
 125      44F3C1CA 
 125      07422691 
 125      C80B
 126 013e 3745297F 		.ascii	"7E)\177+#\220\257\017\237\333\300\317X\240\012j\334"
 126      2B2390AF 
 126      0F9FDBC0 
 126      CF58A00A 
 126      6ADC
 127 0150 EBBF5A43 		.ascii	"\353\277ZCs~\261\013L\015Rs\200\342\311P\0139\030\255"
 127      737EB10B 
 127      4C0D5273 
 127      80E2C950 
 127      0B3918AD 
 128 0164 9201A042 		.ascii	"\222\001\240B\006O\304\315d\010\332\277_\354->#\203"
 128      064FC4CD 
 128      6408DABF 
 128      5FEC2D3E 
 128      2383
 129 0176 0D18ECF9 		.ascii	"\015\030\354\371T\267\225\027a\015cUL\024bl\322\373"
 129      54B79517 
 129      610D6355 
 129      4C14626C 
 129      D2FB
 130 0188 56154B22 		.ascii	"V\025K\"\311\236\241[\215j\011\024\273\334\020\244Q"
 130      C99EA15B 
 130      8D6A0914 
 130      BBDC10A4 
 130      51
 131 0199 F0188B50 		.ascii	"\360\030\213P\307\213\000O\240\004\020\230\377\303$"
 131      C78B004F 
 131      A0041098 
 131      FFC324
 132 01a8 694609EC 		.ascii	"iF\011\354\356\367\366\031y\2701\204\217\231@=\356\306"
 132      EEF7F619 
 132      79B83184 
ARM GAS  C:\Users\zozo\AppData\Local\Temp\ccy30qtq.s 			page 10


 132      8F99403D 
 132      EEC6
 133 01ba 730B816F 		.ascii	"s\013\201o\373\037\260\001\201\210\221\222=\233%\325"
 133      FB1FB001 
 133      81889192 
 133      3D9B25D5 
 134 01ca 8C11B303 		.ascii	"\214\021\263\003\337\372\204\221\366n<\224\273\302Q"
 134      DFFA8491 
 134      F66E3C94 
 134      BBC251
 135 01d9 138EED33 		.ascii	"\023\216\3553\372Bl\004i\201FD>\025\310&\351\2307z\376"
 135      FA426C04 
 135      69814644 
 135      3E15C826 
 135      E998377A 
 136 01ee 8B22792A 		.ascii	"\213\"y*\"W\350\024\025\325\326\306\210t/G*P\376\241"
 136      2257E814 
 136      15D5D6C6 
 136      88742F47 
 136      2A50FEA1 
 137 0202 ECB32270 		.ascii	"\354\263\"p.\335\310\035\237-:6\013GU:~\274{XB\243x"
 137      2EDDC81D 
 137      9F2D3A36 
 137      0B47553A 
 137      7EBC7B58 
 138 0219 DE571A1F 		.ascii	"\336W\032\037\230\005\247`(\237\305p\316{O\236\037\226"
 138      9805A760 
 138      289FC570 
 138      CE7B4F9E 
 138      1F96
 139 022b 326D59A4 		.ascii	"2mY\244\264\206K7\027.\235&\021\213\035i4\020x\276\252"
 139      B4864B37 
 139      172E9D26 
 139      118B1D69 
 139      341078BE 
 140 0240 6CFF84BD 		.ascii	"l\377\204\275\020J\232T\032(\311\224\310h\014i\255\274"
 140      104A9A54 
 140      1A28C994 
 140      C8680C69 
 140      ADBC
 141 0252 DD249558 		.ascii	"\335$\225X^8\265\033\227Zg\015K\224\227\213\2246\251"
 141      5E38B51B 
 141      975A670D 
 141      4B94978B 
 141      9436A9
 142 0265 D45E58BA 		.ascii	"\324^X\272Q4L5o\230h2\002n\275\251\323\302\227\310\352"
 142      51344C35 
 142      6F986832 
 142      026EBDA9 
 142      D3C297C8 
 143 027a 568B0E60 		.ascii	"V\213\016`G\022\320\261\325\360/\257\257\343\232\205"
 143      4712D0B1 
 143      D5F02FAF 
 143      AFE39A85 
 144 028a 1F168357 		.ascii	"\037\026\203W\345\025\330\2024\226\014\003\353h\353"
 144      E515D882 
 144      34960C03 
ARM GAS  C:\Users\zozo\AppData\Local\Temp\ccy30qtq.s 			page 11


 144      EB68EB
 145 0299 141DC8AF 		.ascii	"\024\035\310\257\314\036q\200\177\336o\226\216Vqc\226"
 145      CC1E7180 
 145      7FDE6F96 
 145      8E567163 
 145      96
 146 02aa 27B9A4E7 		.ascii	"'\271\244\347\3227\255\024l\027iZ\205\321|\230\271\332"
 146      D237AD14 
 146      6C17695A 
 146      85D17C98 
 146      B9DA
 147 02bc C81AC01E 		.ascii	"\310\032\300\036'\320\201F\330\355A\272\226\214\202"
 147      27D08146 
 147      D8ED41BA 
 147      968C82
 148 02cb 4B5F488A 		.ascii	"K_H\212\010L\342\335\300+\204\326\361\211\251I\216t"
 148      084CE2DD 
 148      C02B84D6 
 148      F189A949 
 148      8E74
 149 02dd 47D651A7 		.ascii	"G\326Q\247\343\330\221\224\214\354,\273#59%c\357\256"
 149      E3D89194 
 149      8CEC2CBB 
 149      23353925 
 149      63EFAE
 150 02f0 54FBE9E4 		.ascii	"T\373\351\344S\211v\022s\"\335\351\310\312\312\316t"
 150      53897612 
 150      7322DDE9 
 150      C8CACACE 
 150      74
 151 0301 A6387193 		.ascii	"\2468q\223\305\236v2\305\221\346\260;\017:\216\233\016"
 151      C59E7632 
 151      C591E6B0 
 151      3B0F3A8E 
 151      9B0E
 152 0313 ED3F101F 		.ascii	"\355?\020\037E\376\000\212\252\252="
 152      45FE008A 
 152      AAAA3D
 153              		.text
 154              		.section	.gnu.lto_CySysPmHibernate.d9227dd5,"",%progbits
 155 0000 789C7D93 		.ascii	"x\234}\223]H\223Q\030\307\317s\336m\276\373h\216\272"
 155      5D489351 
 155      18C7CF73 
 155      DE6DBEFB 
 155      688EBA
 156 0013 6A45595E 		.ascii	"jEY^H\020^DD\367A\321\235\340E7B\205\015\352\"\2151"
 156      48105E44 
 156      44F741D1 
 156      9DE04537 
 156      42850DEA 
 157 002a 832ECCB3 		.ascii	"\203.\314\263\017TJC\206\332\242\014\004-\313\217e\315"
 157      0F544A43 
 157      86DAA20C 
 157      042DCB8F 
 157      65CD
 158 003c 3ECC6A15 		.ascii	">\314j\025\230Z\231\231M\\a\026[%\0214&\325\214\266"
 158      985A9999 
ARM GAS  C:\Users\zozo\AppData\Local\Temp\ccy30qtq.s 			page 12


 158      4D5C6116 
 158      5B251134 
 158      26D58CB6 
 159 0050 9E73CE3B 		.ascii	"\236s\316;M\373x\341}\316\273\303\363\377=\377\363\354"
 159      4DFB78E1 
 159      7DCEBBC3 
 159      F3FF3DFF 
 159      F3EC
 160 0062 390AF9F3 		.ascii	"9\012\371\363\261\343\273MG\310v\\A!@\033F\011q\253"
 160      B1E3BB4D 
 160      47C8765C 
 160      4121401B 
 160      460971AB 
 161 0076 14807F10 		.ascii	"\024\200\177\020 U\024\252`\226&(4\204;\003\346\202"
 161      205514AA 
 161      60962628 
 161      34843B03 
 161      E682
 162 0088 76C6D817 		.ascii	"v\306\330\027\317\324A\326\270/E\011IR\311\201\213P"
 162      CFD441D6 
 162      B82F4509 
 162      4952C981 
 162      8B50
 163 009a 40306972 		.ascii	"@0irv>\252W\362\201\177\307\207C\215J~+c\236\231\221"
 163      763EAA57 
 163      F2817FC7 
 163      87438D4A 
 163      7E2B639E 
 164 00b0 F823330B 		.ascii	"\370#3\0130\337L&\263>\205\360\016PP\011\233\355\260"
 164      30DF4C26 
 164      B33E85F0 
 164      0E505009 
 164      9BEDB0
 165 00c3 C9AE3941 		.ascii	"\311\2569AA\302\367s\322l\360a\005\033\\\202|\011\207"
 165      41C2F773 
 165      D26CF061 
 165      051B5C82 
 165      7C0987
 166 00d6 CB60005C 		.ascii	"\313`\000\\\370Npe\230e2\311\330\370\320Fe\025\272\305"
 166      F84E7065 
 166      986532C9 
 166      D8F8D046 
 166      6515BAC5 
 167 00ea 2D3D4951 		.ascii	"-=IQj\340A\305\240\030\371\227\231\007\013\017V\036"
 167      6AE041C5 
 167      A018F997 
 167      99070B0F 
 167      561E
 168 00fc 7279B0F1 		.ascii	"ry\260\361@H\014_~\2628\376\300Uy\015\336\360\231\223"
 168      40480C5F 
 168      7EB238FE 
 168      C055790D 
 168      DEF09993 
 169 0110 6B79916F 		.ascii	"ky\221oTA\017\347_\234\352\241\225?X-SST\227\244\274"
 169      54410FE7 
 169      5F9CEAA1 
 169      953F582D 
ARM GAS  C:\Users\zozo\AppData\Local\Temp\ccy30qtq.s 			page 13


 169      53535497 
 170 0126 742754A2 		.ascii	"t'T\242ZO\"@\205\033,\213\311\204k{\037[\371\026Y\256"
 170      5A4F2240 
 170      851B2C8B 
 170      C9846B7B 
 170      1F5BF916 
 171 013c 34247935 		.ascii	"4$y5\350\022\312\034\022\205\007_O\274\357>.\353\350"
 171      E812CA1C 
 171      1285075F 
 171      4FBCEF3E 
 171      2EEBE8
 172 014f 313BF0A1 		.ascii	"1;\360\241w\303G\232\242*c]L\307\365ob\317\236\253b"
 172      77C3479A 
 172      A22A635D 
 172      4CC7F56F 
 172      62CF9EAB 
 173 0164 4B346324 		.ascii	"K4c$\332\334\247\266\300Y\267\017R\324\010\335`\207"
 173      DADCA7B6 
 173      C059B70F 
 173      52D408DD 
 173      6087
 174 0176 1EC06641 		.ascii	"\036\300fA\020Z\000\201\3369\203\244i@\177:\3563q9\305"
 174      105A0081 
 174      DE3983A4 
 174      69407F3A 
 174      EE337139 
 175 018b FE3195C0 		.ascii	"\3761\225\300\025\314\306\272~\340i\377\003\366\"\020"
 175      15CCC6BA 
 175      7EE069FF 
 175      03F62210 
 176 019b 31D264BA 		.ascii	"1\322d\272\273\031$WEM\335\271\301\220\236CMc\3572U"
 176      BB192457 
 176      454DDDB9 
 176      C1909E43 
 176      4D63EF32 
 177 01b0 4B5C9A84 		.ascii	"K\\\232\204\313\323\367\347\333tY\250\031\256\"\364"
 177      CBD3F7E7 
 177      DB7459A8 
 177      19AE22F4 
 178 01c0 9A8086A4 		.ascii	"\232\200\206\244K\317t\315\023\235\344\031\021\271\304"
 178      4BCF74CD 
 178      139DE419 
 178      11B9C4
 179 01cf 50535330 		.ascii	"PSS0h\025\007\256\313\366\240c\252\375\223\"p\356\360"
 179      681507AE 
 179      CBF6A063 
 179      AAFD9322 
 179      70EEF0
 180 01e2 6AEEB26F 		.ascii	"j\356\262o\301\345u\341\322(]Fz\216J\250\031E\303\365"
 180      C1E575E1 
 180      D2285D46 
 180      7A8E4AA8 
 180      1945C3F5 
 181 01f6 7D6D3982 		.ascii	"}m9\202\323\020\3652+\347\274\014x\022\260x\326\033"
 181      D310F532 
 181      2BE7BC0C 
 181      7812B078 
ARM GAS  C:\Users\zozo\AppData\Local\Temp\ccy30qtq.s 			page 14


 181      D61B
 182 0208 0B949BCB 		.ascii	"\013\224\233\313\232g\221\210~\377P\300 \232\247#pk"
 182      9A679188 
 182      7EFF50C0 
 182      209AA723 
 182      706B
 183 021a 59E3FE09 		.ascii	"Y\343\376\011\353\027\226,\322\322`P\373w\255(\031\213"
 183      EB17962C 
 183      D2D26050 
 183      FB77AD28 
 183      198B
 184 022c 5C786B14 		.ascii	"\\xk\024\226\272\262G{Z\323>\376[\373o/P\0064K\337\253"
 184      96BAB247 
 184      7B5AD33E 
 184      FE5BFB6F 
 184      2F500634 
 185 0243 273453B9 		.ascii	"'4S\271\022\3629\304\006\244)\226\316dr\011\334\021"
 185      12F239C4 
 185      06A42996 
 185      CE647209 
 185      DC11
 186 0255 C6BC73D5 		.ascii	"\306\274s\325\023kd\242\015s116U_\253\210\304\004\020"
 186      136B64A2 
 186      0D733131 
 186      36555FAB 
 186      88C40410 
 187 0269 B8ABD96F 		.ascii	"\270\253\331o]\247\371_\254\2545u\261\366=q\002\033"
 187      5DA7F95F 
 187      ACAC3575 
 187      B1F63D71 
 187      021B
 188 027b 7905EC61 		.ascii	"y\005\354a\332,&\031\237-8\332\276\260\377\357\223m"
 188      DA2C2619 
 188      9F2D38DA 
 188      BEB0FFEF 
 188      936D
 189 028d 49E2E813 		.ascii	"I\342\350\023\010\343d\343%H\321\025d\032\334\341\246"
 189      08E364E3 
 189      2548D115 
 189      641ADCE1 
 189      A6
 190 029e 519A55C7 		.ascii	"Q\232U\307\360\316\340\325\302\361\317+,\331\345(s8"
 190      F0CEE0D5 
 190      C2F1CF2B 
 190      2CD9E528 
 190      7338
 191 02b0 F7BB1C07 		.ascii	"\367\273\034\007\366\026\227W8K\035%E\305\345;\266\226"
 191      F6169757 
 191      384B1D25 
 191      45C5E53B 
 191      B696
 192 02c2 941E2B3A 		.ascii	"\224\036+:\\XJ\254\207\312\\\016\247\263\342\210\253"
 192      5C584AAC 
 192      87CA5C0E 
 192      A7B3E288 
 192      AB
 193 02d3 D8854986 		.ascii	"\330\205I\206=;w\347\231\310/[\213\212+"
ARM GAS  C:\Users\zozo\AppData\Local\Temp\ccy30qtq.s 			page 15


 193      3D3B77E7 
 193      99C82F5B 
 193      8B8A2B
 194              		.text
 195              		.section	.gnu.lto_CySysPmSetWakeupPolarity.d9227dd5,"",%progbits
 196 0000 789C7D51 		.ascii	"x\234}Q[H\024Q\030>\337\231\313\316\272b\341\233K\230"
 196      5B481451 
 196      183EDF99 
 196      CBCEBA62 
 196      E19B4B98 
 197 0014 20228128 		.ascii	" \"\201(DOA\020\364\320\253\340\253Pb\373 \224\312\262"
 197      444F4110 
 197      F4D0ABE0 
 197      AB5062FB 
 197      2094CAB2 
 198 0028 3E088967 		.ascii	">\010\211gs2\011\011\023+\241\214\"4\315[\251\225\225"
 198      73320909 
 198      132BA18C 
 198      2234CD5B 
 198      A99595
 199 003b 0F430415 		.ascii	"\017C\004\025f\346%\2276+\003W\262\207h\331-\233\254"
 199      66E62597 
 199      362B0357 
 199      B28768D9 
 199      2D9BAC
 200 004e A6FFCC6C 		.ascii	"\246\377\314l\017\0264pn?\337\345\237\357W\330\277\337"
 200      0F163470 
 200      6E3FDFE5 
 200      9FEF57D8 
 200      BFDF
 201 0060 3E5A3F38 		.ascii	">Z?8c{\351\204\316\300;\2363\02658W\246\362\231\310"
 201      637BE984 
 201      CEC03B9E 
 201      33163538 
 201      57A6F299 
 202 0075 5217CB98 		.ascii	"R\027\313\230\310V\240ye\365\317E\003\344\205\2015s"
 202      C856A079 
 202      65F5CF45 
 202      03E48581 
 202      3573
 203 0087 45D5D08C 		.ascii	"E\325\320\214u\236\344\350\260\006\273\003\305\275B"
 203      759EE4E8 
 203      B006BB03 
 203      C5BD42
 204 0096 88CFF3E7 		.ascii	"\210\317\363\347jD\327a\233\244S\334\263\302u\024\023"
 204      6A44D761 
 204      9BA453DC 
 204      B3C27514 
 204      13
 205 00a7 462C5D19 		.ascii	"F,]\031\326\225B0\272\337\033I\317\004>p\233\243@>\357"
 205      D6954230 
 205      BADF1B49 
 205      CF043E70 
 205      9BA3403E 
 206 00bc 773EE9D6 		.ascii	"w>\351\326\345\223\253\362\371:=w2\247\350\232\020'"
 206      E593ABF2 
 206      F93A3D77 
ARM GAS  C:\Users\zozo\AppData\Local\Temp\ccy30qtq.s 			page 16


 206      32A7E89A 
 206      1027
 207 00ce ACF898D8 		.ascii	"\254\370\230\330\257\332\\A?\024\322\303\000\202\270"
 207      AFDA5C41 
 207      3F14D2C3 
 207      0082B8
 208 00dd 8120A312 		.ascii	"\201 \243\022\303 \212$<\266\376=\256)%\256p\342\351"
 208      C3208A24 
 208      3CB6FE3D 
 208      AE2925AE 
 208      70E2E9
 209 00f0 44975278 		.ascii	"D\227Rx\225\250+\243\353\217\003\242[\230+\216\263\323"
 209      95A82BA3 
 209      EB8F03A2 
 209      5B982B8E 
 209      B3D3
 210 0102 E62A863C 		.ascii	"\346*\206<\205\222 v\0053!\020!i\376\214\005t\223:\337"
 210      85922076 
 210      05332110 
 210      2169FE8C 
 210      0574933A 
 211 0117 8E61147A 		.ascii	"\216a\024zMc\004:\350\220\225\321\\K8\316xl\261m\267"
 211      4D63043A 
 211      E89095D1 
 211      5C4B38CE 
 211      786CB16D 
 212 012c 9A0D32D6 		.ascii	"\232\0152\326T&\353\224\004\371\353\262\340\223\233"
 212      5426EB94 
 212      04F9EBB2 
 212      E0939B
 213 013b 2137BFDC 		.ascii	"!7\277\334\030[%\021\031S\202sy*\313h\261R\235;\244"
 213      185B2511 
 213      19538273 
 213      792ACB68 
 213      B1529D3B 
 214 0150 EC0657C9 		.ascii	"\354\006W\311\365\362\302\231\021\336\264)\332\204a"
 214      F5F2C299 
 214      11DEB429 
 214      DA8461
 215 015f 733DC5A5 		.ascii	"s=\305\245\331(\232\210\355cK\340\256?y\020\230\275"
 215      D9289A88 
 215      ED634BE0 
 215      AE3F7910 
 215      98BD
 216 0171 84F9AA25 		.ascii	"\204\371\252%\325{I\361\330\032\261\243}\017\332}2."
 216      D57B49F1 
 216      D81AB1A3 
 216      7D0FDA7D 
 216      322E
 217 0183 B2C24D78 		.ascii	"\262\302Mx\177\223\240D\246\362\2258\036~=\235\316\200"
 217      7F93A044 
 217      A6F29538 
 217      1E7E3D9D 
 217      CE80
 218 0195 7502BF58 		.ascii	"u\002\277X\352{\357\227`cH\014\0117\337w\253\263s\206"
 218      EA7BEF97 
 218      6063480C 
ARM GAS  C:\Users\zozo\AppData\Local\Temp\ccy30qtq.s 			page 17


 218      0937DF77 
 218      ABB37386 
 219 01a9 5B722398 		.ascii	"[r#\2309\325;o\364\340b\324\204\315\375\270E\021\217"
 219      39D53B6F 
 219      F4E062D4 
 219      84CDFDB8 
 219      45118F
 220 01bc 49518CA3 		.ascii	"IQ\214\243\007,\216\226t\353j\236'\350\3634\317\177"
 220      072C8E96 
 220      74EB6A9E 
 220      27E8F334 
 220      CF7F
 221 01ce E91F70E7 		.ascii	"\351\037p\347\245\011R\304\204\333B\202\232],\363\032"
 221      A50952C4 
 221      84DB4282 
 221      9A5D2CF3 
 221      1A
 222 01df F8347DDC 		.ascii	"\3704}\334#\030\377\323\277\235\321\377\326\2726=\251"
 222      2318FFD3 
 222      BF9DD1FF 
 222      D6BA363D 
 222      A9
 223 01f0 7B04BFC7 		.ascii	"{\004\277\307\371h\316\266\303up\234Mg\033\303\235\214"
 223      F968CEB6 
 223      C375709C 
 223      4D671BC3 
 223      9D8C
 224 0202 87E6064A 		.ascii	"\207\346\006J&\235\3117\217|\222\263\305!j\345m\365"
 224      269DC937 
 224      8F7C92B3 
 224      C5216AE5 
 224      6DF5
 225 0214 B84B1E1B 		.ascii	"\270K\036\033\224\3572L\353W\256\304\263\277\363\317"
 225      94EF324C 
 225      EB57AEC4 
 225      B3BFF3CF 
 226 0224 4AD19818 		.ascii	"J\321\230\030&)\177\012\334\346\001\366\026Q\353\354"
 226      26297F0A 
 226      DCE601F6 
 226      1651EBEC 
 227 0234 823B0632 		.ascii	"\202;\0062]\003)\370\224g\027\222\331\324\237*\307\013"
 227      5D0329F8 
 227      94671792 
 227      D9D49F2A 
 227      C70B
 228 0246 D905910A 		.ascii	"\331\005\221\012J+\017\206jC\341\252H\350\310\241\212"
 228      4A2B0F86 
 228      6A43E1AA 
 228      48E8C8A1 
 228      8A
 229 0257 BA867075 		.ascii	"\272\206pu\250\262\274\242\356\300\236\312\352\306\362"
 229      A8B2BCA2 
 229      EEC09ECA 
 229      EAC6F2
 230 0266 63A5D5CC 		.ascii	"c\245\325\314\250\257;Z\025\256\2114\346\324\324FB\341"
 230      A8AF3B5A 
 230      15AE8934 
ARM GAS  C:\Users\zozo\AppData\Local\Temp\ccy30qtq.s 			page 18


 230      E6D4D446 
 230      42E1
 231 0278 70437DA4 		.ascii	"pC}\244\"B\350\337c%%#"
 231      2242E8DF 
 231      63252523 
 232              		.text
 233              		.section	.gnu.lto_CySysPmGetResetReason.d9227dd5,"",%progbits
 234 0000 789C6592 		.ascii	"x\234e\222\313OSA\024\306\317\231\271\367R\322\242\215"
 234      CB4F5341 
 234      14C6CF99 
 234      B9F752D2 
 234      A28D
 235 0012 18176C24 		.ascii	"\030\027l$aAt\301F\377\003\023]J\302\266\211!\265Ki"
 235      614174C1 
 235      46FF0313 
 235      5D4AC2B6 
 235      8921B54B 
 236 0027 445DB862 		.ascii	"D]\270b\012\025ED\214\020S\036\025X\200\250\265\010"
 236      0A154544 
 236      8C10531E 
 236      155880A8 
 236      B508
 237 0039 F8E09198 		.ascii	"\370\340\221\230\212\304\020\015\305\")B\014\217\004"
 237      8AC4100D 
 237      C5222942 
 237      0C8F04
 238 0048 0CEE04AA 		.ascii	"\014\356\004\252\330\244R\317\231[\014\304\233t^\375"
 238      D8A452CF 
 238      995B0CC4 
 238      9B745EFD 
 239 0058 7EDF79CC 		.ascii	"~\337y\314H\370\377\253\240\337Y\011p\202f\314\003\024"
 239      48F8FFAB 
 239      A0DF5909 
 239      708266CC 
 239      0314
 240 006a F7E20001 		.ascii	"\367\342\000\001\2070\254\311BP\016\251GC\217\246}\202"
 240      8730ACC9 
 240      42500EA9 
 240      47438FA6 
 240      7D82
 241 007c 962D31F6 		.ascii	"\226-1\366\026\346\336\302B\344\005 \324\010i\230\026"
 241      16E6DEC2 
 241      42E40520 
 241      D4086998 
 241      16
 242 008d D6E077B1 		.ascii	"\326\340w\261)p4\232\232vn\210\264\200b\240\355\330"
 242      2970349A 
 242      9A766E88 
 242      B48062A0 
 242      EDD8
 243 009f FDA990C5 		.ascii	"\375\251\220\305[4x;\237\014\315\347\227\366*U\373c"
 243      5B34783B 
 243      9F0CCDE7 
 243      97F62A55 
 243      FB63
 244 00b1 2B7CB9AD 		.ascii	"+|\271\255\265\233\376\021\260-\000\037a\021\366c\021"
 244      B59BFE11 
ARM GAS  C:\Users\zozo\AppData\Local\Temp\ccy30qtq.s 			page 19


 244      B02D001F 
 244      6111F663 
 244      11
 245 00c2 3B3EC652 		.ascii	";>\306R\326vn4<p\310\022\344uk\307r\344PI\017q+\351"
 245      D6766E34 
 245      3C70C812 
 245      E4756BC7 
 245      72E45049 
 246 00da 860F2E35 		.ascii	"\206\017.5\245\202+\331\354q\202\361\011\312\203<\177"
 246      A5822BD9 
 246      EC7182F1 
 246      09CA833C 
 246      7F
 247 00eb 846C06FF 		.ascii	"\204l\006\377\314;\255\240R\312\215O\261\204\203\220"
 247      CC3BADA0 
 247      52CA8D4F 
 247      B1848390 
 248 00fb 77042DA4 		.ascii	"w\004-\244\211O\006\216\304T6;\234\231\233:i\232\010"
 248      894F068E 
 248      C454363B 
 248      9C999B3A 
 248      699A08
 249 010e 7C24214D 		.ascii	"|$!M\305\360\000\260Fz\256p\235\022\244Y&\2616\266\335"
 249      C5F000B0 
 249      467AAE70 
 249      9D12A459 
 249      26B136B6 
 250 0123 72543B90 		.ascii	"rT;\220\224\",\257\315$\034\033\272\002\300g\024{\021"
 250      94222CAF 
 250      CD241C1B 
 250      BA02C067 
 250      147B11
 251 0136 277EDD5E 		.ascii	"'~\335^<\317\222\035!I\361)\331\267\232\317\012#\242"
 251      3CCF921D 
 251      2149F129 
 251      D9B79ACF 
 251      0A23A2
 252 0149 224A77E0 		.ascii	"\"Jw\340\037d\350,\247o\366\316:\302\330\021\010bZ\230"
 252      1F64E82C 
 252      A76FF6CE 
 252      3AC2D811 
 252      08625A98 
 253 015d 18A52A06 		.ascii	"\030\245*\006\270\012|\216a$\303\272\337\365_\015\333"
 253      B80A7C8E 
 253      6124C3BA 
 253      DFF55F0D 
 253      DB
 254 016e D0B03DEF 		.ascii	"\320\260=\357~l\177+\331@f)\351A\022/\340\015u*\247"
 254      7E6C7F2B 
 254      D9406629 
 254      E941122F 
 254      E00D752A 
 255 0183 21C16C26 		.ascii	"!\301l&\323\217\315\330\024\010\252\356\2603-,\200\024"
 255      D38FCDD8 
 255      1408AAEE 
 255      B0332D2C 
 255      8014
ARM GAS  C:\Users\zozo\AppData\Local\Temp\ccy30qtq.s 			page 20


 256 0195 D70E3844 		.ascii	"\327\0168D\307$\010\364\215\337\311\323\016:\205x\242"
 256      C72408F4 
 256      8DDFC9D3 
 256      0E3A8578 
 256      A2
 257 01a6 2D5E90D3 		.ascii	"-^\220\323\357\346\223\036\207\3114%\220\221\0276\262"
 257      EFE6931E 
 257      87C93425 
 257      90911736 
 257      B2
 258 01b7 B6D074CB 		.ascii	"\266\320t\313\016\272\251\357#\272\272\023\312\3131"
 258      0EBAA9EF 
 258      23BABA13 
 258      CACB31
 259 01c6 8D1C035F 		.ascii	"\215\034\003_jF\367\370\225\315\274y\370~\251@3[\232"
 259      6A46F7F8 
 259      95CDBC79 
 259      F87EA940 
 259      335B9A
 260 01d9 1999AB9F 		.ascii	"\031\231\253\237p\345\230\220f^kF23B\014p\263%L\026"
 260      70E59890 
 260      665E6B46 
 260      3233420C 
 260      70B3254C 
 261 01ee CA2F1870 		.ascii	"\312/\030psA\234\004\367=\333rl_\337\023\355}u\207u"
 261      73419C04 
 261      F73DDB72 
 261      6C5FDF13 
 261      ED7D7587 
 262 0203 DFA901A3 		.ascii	"\337\251\001\243\372\316\327\251\235\0078\241\271\320"
 262      FACED7A9 
 262      9D0738A1 
 262      B9D0
 263 0211 7E6C66E5 		.ascii	"~lf\345]\263Kc\364\\\306r\230y\020\223\032\033\332\217"
 263      5DB34B63 
 263      F45CC672 
 263      98791093 
 263      1A1BDA8F 
 264 0225 0D74FDDC 		.ascii	"\015t\375\334E\215I\300\361\034f\351'\301\234\356-A"
 264      458D49C0 
 264      F11C66E9 
 264      27C19CEE 
 264      2D41
 265 0237 6EFD8076 		.ascii	"n\375\200v(\245%\014\304>']\366\205PQ\337\0209K\231"
 265      28A5250C 
 265      C43E275D 
 265      F6855051 
 265      DF10394B 
 266 024c E91A448E 		.ascii	"\351\032D\216kL\322LFf\3530\362\263\021\235]=H\317\015"
 266      6B4CD24C 
 266      4666EB30 
 266      F2B3119D 
 266      5D3D48CF 
 267 0261 D993CC8A 		.ascii	"\331\223\314\212\313<\347|U\276\352\312\253\276\213"
 267      CB3CE77C 
 267      55BEEACA 
 267      ABBE8B
ARM GAS  C:\Users\zozo\AppData\Local\Temp\ccy30qtq.s 			page 21


 268 0270 172AFCD7 		.ascii	"\027*\374\327\252\275>Oy\205\377\314i\217\367z\371\245"
 268      AABD3E4F 
 268      7985FFCC 
 268      698FF77A 
 268      F9A5
 269 0282 322F58D5 		.ascii	"2/X\325\276\312+\376\252\277\206\3024\""
 269      BECA2BFE 
 269      AABF86C2 
 269      3422
 270              		.text
 271              		.section	.gnu.lto_CySysPmFreezeIo.d9227dd5,"",%progbits
 272 0000 789C8D92 		.ascii	"x\234\215\222\337K\024Q\024\307\317\2713;;\333\356\206"
 272      DF4B1451 
 272      14C7CFB9 
 272      333B3BDB 
 272      EE86
 273 0012 F4B8F48B 		.ascii	"\364\270\364\2136\220 \224\250\377\240\207^\205}\351"
 273      36902094 
 273      A8FFA087 
 273      5E857DE9 
 274 0022 61C162DB 		.ascii	"a\301b\333\007\037\322XV\250\007\361\216\273\230\205"
 274      071FD258 
 274      56A807F1 
 274      8EBB9885 
 275 0032 88C48642 		.ascii	"\210\304\206Bi\370\240\375p\325~h%\3650\370\022=\364"
 275      69F8A0FD 
 275      70D57E68 
 275      25F530F8 
 275      123DF4
 276 0045 5B575962 		.ascii	"[WYb5\331\245\225\"\222\025s\312\232\316\235;\011\026"
 276      35D9A595 
 276      22921573 
 276      CA9ACE9D 
 276      3B0916
 277 0058 2C0DCCB9 		.ascii	",\015\314\271w.\237\363=\337{\346(\360\357s\224\336"
 277      772E9FF3 
 277      3DDF7BE6 
 277      28F0EF73 
 277      94DE
 278 006a F30AC011 		.ascii	"\363\012\300\021Z\321\003\310z_\002\030:c\312l=\360"
 278      5AD103C8 
 278      7A5F0218 
 278      3A63CA6C 
 278      3DF0
 279 007c 1DEAD3BD 		.ascii	"\035\352\323\275\300\003\012\252\362XE\024\033@hg\212"
 279      C0030AAA 
 279      F2584514 
 279      1B406867 
 279      8A
 280 008d 8AEDB8C2 		.ascii	"\212\355\270\302V\031\366\232\243\375\376\332a\316\371"
 280      5619F69A 
 280      A3FDFEDA 
 280      61CEF9
 281 009c D7E5E926 		.ascii	"\327\345\351&\2369e1\200\012\223\005\360&\326\002A\363"
 281      9E396531 
 281      800A9305 
 281      F026D602 
ARM GAS  C:\Users\zozo\AppData\Local\Temp\ccy30qtq.s 			page 22


 281      41F3
 282 00ae 2BDFF31E 		.ascii	"+\337\363\036%\214b_z>\231Q\302C\234w,-|z\346\347\375"
 282      258C625F 
 282      7A3E9951 
 282      C2439C77 
 282      2C2D7C7A 
 283 00c5 3CBD64DB 		.ascii	"<\275d\333\373,\206x\013\025\312\304\303!<\024r-R\302"
 283      FB2C8678 
 283      0B15CAC4 
 283      C3213C14 
 283      722D52C2 
 284 00d9 6AFAE7BC 		.ascii	"j\372\347\274_KS\205\032\274\215a)\216wPCZ\304\311\304"
 284      5F4B5385 
 284      1ABC8D61 
 284      298E7750 
 284      435AC4C9 
 285 00ee 2E93DB76 		.ascii	".\223\333v\345\343\\\371\200V\243\2028\362\200\305\230"
 285      E5E35CF9 
 285      8056A382 
 285      38F280C5 
 285      98
 286 00ff 26825704 		.ascii	"&\202W\004]\004\237\010~\021\002\"\004E\000(\322+\256"
 286      5D049F08 
 286      7E110222 
 286      04450028 
 286      D22BAE
 287 0112 55A20F5A 		.ascii	"U\242\017Z\225\367\2302\247\372v\013\375oL\245\362\203"
 287      95F79832 
 287      A7FA760B 
 287      FD6F4CA5 
 287      F283
 288 0124 EF7AC659 		.ascii	"\357z\306Y\333\017\336\305u\213\221?Qu\024\333([\205"
 288      DB0FDEC5 
 288      758B913F 
 288      517514DB 
 288      285B85
 289 0137 1C32C708 		.ascii	"\0342\307\010U$\030\3628\263~9W8)\223=\224\374:7\362"
 289      552418F2 
 289      38B37E39 
 289      57382993 
 289      3D94FC3A 
 290 014d C1576616 		.ascii	"\301Wf\026\363dy\226\253\342:\213\305Wot\347\310\271"
 290      F3647996 
 290      ABE23A8B 
 290      C5576F74 
 290      E7C8B9
 291 0160 DD8B8BC3 		.ascii	"\335\213\213\303o\365\001\274f\244\321b\032f1\204cH"
 291      6FF501BC 
 291      66A4D162 
 291      1A663184 
 291      6348
 292 0172 B7C7711C 		.ascii	"\267\307q\034@RLmtn\252R\320\325\034\334\030\353P\205"
 292      40524C6D 
 292      746EAA52 
 292      D0D51CDC 
 292      18EB5085 
 293 0186 00E35C07 		.ascii	"\000\343\\\007\234 z\016\323\013\251\204K\021b\214<"
ARM GAS  C:\Users\zozo\AppData\Local\Temp\ccy30qtq.s 			page 23


 293      9C207A0E 
 293      D30BA984 
 293      4B11628C 
 293      3C
 294 0197 E9F63A08 		.ascii	"\351\366:\010\011\335E\331\314\022S`\266^qL\256\027"
 294      09DD45D9 
 294      CC125360 
 294      B65E714C 
 294      AE17
 295 01a9 3228716F 		.ascii	"2(qo5\017\367\266<|\326$\256\313\214K\331\356\033\314"
 295      350FF7B6 
 295      3C7CD624 
 295      AECB8C4B 
 295      D9EE1BCC 
 296 01bd 29601BD4 		.ascii	")`\033\324\361\373D\023\266\326\371\245p\335+A\037\261"
 296      F1FB4413 
 296      B6D6F9A5 
 296      70DD2B41 
 296      1FB1
 297 01cf 04DA3DE5 		.ascii	"\004\332=\345M\011\362\265.a\367\201\203\316\\\031:"
 297      4D09F2B5 
 297      2E61F781 
 297      83CE5C19 
 297      3A
 298 01e0 28B86DC5 		.ascii	"(\270m\305\015s\317\366\362\223T\236\224d_\363\215R"
 298      0D73CFF6 
 298      F293549E 
 298      94645FF3 
 298      8D52
 299 01f2 D85FCDF0 		.ascii	"\330_\315\360\2244L\370\262\213\007\252\341\017\267"
 299      94344CF8 
 299      B28B07AA 
 299      E10FB7
 300 0201 F05F8B7F 		.ascii	"\360_\213\177\032\022\254\226\360\310M\370/\373\217"
 300      1A12AC96 
 300      F0C84DF8 
 300      2FFB8F
 301 0210 1DFB41A7 		.ascii	"\035\373A\247\365\252;\\i\363j> R\341\357\321\362V\234"
 301      F5AA3B5C 
 301      69F36A3E 
 301      2052E1EF 
 301      D1F2569C 
 302 0224 BF354DA3 		.ascii	"\2775M\243E\263d\321\314\026\3200\373\362\316\204\211"
 302      45B364D1 
 302      CC16D030 
 302      FBF2CE84 
 302      89
 303 0235 FF57A4D1 		.ascii	"\377W\244\321#\021\202\366\327EO\304\233\343\211\323"
 303      231182F6 
 303      D7454FC4 
 303      9BE389D3 
 304 0245 C9F899C6 		.ascii	"\311\370\231\306HKk\"\026\2176DZ\216\037\213\306.4\234"
 304      484B6B22 
 304      168F3644 
 304      5A8E1F8B 
 304      C62E349C 
 305 0259 AD8BC1CE 		.ascii	"\255\213\301\316\246\346d<\221h=\227\214$\011\372\015"
ARM GAS  C:\Users\zozo\AppData\Local\Temp\ccy30qtq.s 			page 24


 305      A6E6643C 
 305      91683D97 
 305      8C2409FA 
 305      0D
 306 026a ED5047DF 		.ascii	"\355PG\337"
 307              		.text
 308              		.section	.gnu.lto_CySysPmStop.d9227dd5,"",%progbits
 309 0000 789C6366 		.ascii	"x\234cf\300\004R@\\\300\304\300\240\017\244\031\231"
 309      C0045240 
 309      5CC0C4C0 
 309      A00FA419 
 309      99
 310 0011 19189926 		.ascii	"\031\030\231&\234c`h\344`bd\0041\030\030\031\352\231"
 310      9C636068 
 310      E4606264 
 310      04311818 
 310      19EA99
 311 0024 18EB195F 		.ascii	"\030\353\031_2}db\234p`\365\014n\365\245\015\015\015"
 311      327D6462 
 311      9C7060F5 
 311      0C6EF5A5 
 311      0D0D0D
 312 0037 1F16FDCC 		.ascii	"\037\026\375\314h\230\222\360\023\250\3573\023\304\034"
 312      689892F0 
 312      13A8EF33 
 312      13C41C
 313 0046 C6E58CEA 		.ascii	"\306\345\214\352\014@E\037[\376^\347fk\001*\022\200"
 313      0C40451F 
 313      5BFE5EE7 
 313      666B012A 
 313      1280
 314 0058 C831AE60 		.ascii	"\3101\256`dc\004\322\353\205\0164\374\377\377\371\351"
 314      646304D2 
 314      EB850E34 
 314      FCFFFFF9 
 314      E9
 315 0069 E513F6CC 		.ascii	"\345\023\366\314\334\314\014?\231\030Y@\004+\210\340"
 315      DCCC0C3F 
 315      99185940 
 315      042B88E0 
 316 0079 00119C20 		.ascii	"\000\021\234 \202\201\341\011P\023\310\352\247LL \232"
 316      8281E109 
 316      5013C8EA 
 316      A74C4C20 
 316      9A
 317 008a F90E63F3 		.ascii	"\371\016c\363\201\231\347y@\306\200\314\237w\271o\035"
 317      8199E779 
 317      40C680CC 
 317      9F77B96F 
 317      1D
 318 009b 53EDEF86 		.ascii	"S\355\357\206\216\006\216\237LL\237A:\030W2\326\002"
 318      8E068E9F 
 318      4C4C9F41 
 318      3A185732 
 318      D602
 319 00ad F53233DC 		.ascii	"\36523\334b<\364\255\353\337\236:\220\332\357L\314@"
 319      623CF4AD 
ARM GAS  C:\Users\zozo\AppData\Local\Temp\ccy30qtq.s 			page 25


 319      EBDF9E3A 
 319      90DAEF4C 
 319      CC40
 320 00bf D517AE2D 		.ascii	"\325\027\256-{\310\371\202\351'\023\313\232\2065\015"
 320      7BC8F982 
 320      E92713CB 
 320      9A86350D 
 321 00cf 2C2003EE 		.ascii	", \003\356?9\177\221\003,\304\000\342\236m_z\211c.\343"
 321      3F397F91 
 321      032CC400 
 321      E29E6D5F 
 321      7A89632E 
 322 00e4 ECC616C6 		.ascii	"\354\306\026\306\237L\254\214\253\030\245\030W3\002"
 322      9F4CAC8C 
 322      AB18A518 
 322      573302
 323 00f3 0385710D 		.ascii	"\003\205q\015\343\\F\240\211\315?\332\256\260A\014d"
 323      E35C46A0 
 323      89CD3FDA 
 323      AEB0410C 
 323      64
 324 0104 819839ED 		.ascii	"\201\2309\355\353\212\225l \003\030\033\200&2\256\005"
 324      EB8A956C 
 324      2003181B 
 324      802632AE 
 324      05
 325 0115 AA062AFB 		.ascii	"\252\006*\373\322\366F\022\242\214\025\250\022\250l"
 325      D2F64612 
 325      A28C15A8 
 325      12A86C
 326 0124 DFBC63F7 		.ascii	"\337\274c\367x\301\312>120\256\003\253:4i\241\034H\021"
 326      78C1CA3E 
 326      313230AE 
 326      03AB3A34 
 326      69A11C48 
 327 0139 8ABD8D07 		.ascii	"\212\275\215\007$Qm^\017\264\031h\014\003\310\347[\370"
 327      24516D5E 
 327      0FB41968 
 327      0C03C8E7 
 327      5BF8
 328 014b B17A9CED 		.ascii	"\261z\234\35530t\030\0307\200=\316\016\361\370\273\275"
 328      33307418 
 328      1837803D 
 328      CE0EF1F8 
 328      BBBD
 329 015d 35100770 		.ascii	"5\020\007p\340\363\326F\250\267\276\264\235\201z\213"
 329      E0F3D646 
 329      A8B7BEB4 
 329      9D817A8B 
 330 016d 13A263D2 		.ascii	"\023\242c\322\277\247-\\Po54p00n\"\301\311\233\301N"
 330      BFA72D5C 
 330      506F3534 
 330      7030306E 
 330      22C1C99B 
 331 0183 E664B8CD 		.ascii	"\346d\270\315\330p\370\006\304\311@\240\014\346\337"
 331      D870F806 
 331      C4C940A0 
ARM GAS  C:\Users\zozo\AppData\Local\Temp\ccy30qtq.s 			page 26


 331      0CE6DF
 332 0192 42E37F80 		.ascii	"B\343\177\200\3635\031\35616\036\370{\236\011&\360\004"
 332      F33519EE 
 332      31361EF8 
 332      7B9E0926 
 332      F004
 333 01a4 189DC038 		.ascii	"\030\235\3008\007zMA/\306=5/\265(\261$5%>8\277\264("
 333      077A4D41 
 333      2FC63D35 
 333      2FB528B1 
 333      2435253E 
 334 01bc 39352620 		.ascii	"95& 8\337\331$&\2712 W/\231\201\325\317?\200\213\201"
 334      38DFD924 
 334      26B93220 
 334      572F9981 
 334      D5CF3F80 
 335 01d2 2DDCCD53 		.ascii	"-\334\315S\201\213\001\000\250\356\345/"
 335      818B0100 
 335      A8EEE52F 
 336              		.text
 337              		.section	.gnu.lto_CySysPmUnfreezeIo.d9227dd5,"",%progbits
 338 0000 789C7D92 		.ascii	"x\234}\222]H\024Q\024\307\357\377\316\3544\353\204D"
 338      5D481451 
 338      14C7EFFF 
 338      CEEC34EB 
 338      8444
 339 0012 6F2E51C1 		.ascii	"o.Q\301>H\020B\320S\257=\364*\354\353\202\3056\017>"
 339      3E481042 
 339      D053AF3D 
 339      F42AECEB 
 339      82C5360F 
 340 0027 A8B18C50 		.ascii	"\250\261\214P\220x'\007\373 b1\037\004\321\360\301\254"
 340      90782707 
 340      FB206231 
 340      1F04D1F0 
 340      C1AC
 341 0039 DCB4D27A 		.ascii	"\334\264\322z\213\206}(\202>\215vc\225\264XA\303\"3"
 341      8B867D28 
 341      823E8D76 
 341      6395B458 
 341      41C32233 
 342 004d AC29723A 		.ascii	"\254)r:w\356\026\250\260\003\367\334;\227\337\371\237"
 342      77EE16A8 
 342      B003F7DC 
 342      3B97DFF9 
 342      9F
 343 005e 73EE391A 		.ascii	"s\3569\032\333\376%h}\343\214\035\242\035\032\003\317"
 343      DBFE2568 
 343      7DE38C1D 
 343      A21D1A03 
 343      CF
 344 006f BD60CC35 		.ascii	"\275`\31459 \017\014\254\233\243\033\313|\225#\347\217"
 344      39200F0C 
 344      AC9BA31B 
 344      CB7C9523 
 344      E78F
 345 0081 0F588DA3 		.ascii	"\017X\215\243B\210\2573\245V\321\177< \2775\256t0\206"
ARM GAS  C:\Users\zozo\AppData\Local\Temp\ccy30qtq.s 			page 27


 345      4288AF33 
 345      A556D17F 
 345      3C20BF35 
 345      AE743086 
 346 0095 46465069 		.ascii	"FFPi\371W9\246%!\317\213O\247\373\265\344\210\020\347"
 346      F95739A6 
 346      2521CF8B 
 346      4FA7FBB5 
 346      E48810E7 
 347 00a9 161E7D7E 		.ascii	"\026\036}~b\211\001\341-\204\341\276\200\304o@#O\034"
 347      628901E1 
 347      2D84E1BE 
 347      80C46F40 
 347      234F1C
 348 00bc 4CE040A2 		.ascii	"L\340@\242\232\0119\254z\177J\226\341Q\204]\270\211"
 348      9A0939AC 
 348      7A7F4A96 
 348      E151845D 
 348      B889
 349 00ce A412C72D 		.ascii	"\244\022\307-\030\240M\336L\356\366E\030N\315\027\227"
 349      18A04DDE 
 349      4CEEF645 
 349      184ECD17 
 349      97
 350 00df 8E18F594 		.ascii	"\216\030\365\224-]\351,\340<&\215!\215)M\\\232:i,i\030"
 350      2D5DE92C 
 350      E03C268D 
 350      218D294D 
 350      5C9A3A69 
 351 00f6 ABD092F5 		.ascii	"\253\320\222\365,\322\017\355\332\034z\374\253\203{"
 351      2CD20FED 
 351      DA1C7AFC 
 351      AB837B
 352 0105 A4F40FAE 		.ascii	"\244\364\017\256Q\344\3417W&x\327oqA\230\001\247\324"
 352      51E4E137 
 352      572678D7 
 352      6F714198 
 352      01A7D4
 353 0118 64C07174 		.ascii	"d\300qt\221\267\316\212\340Q\016\024\214`VFa\375\322"
 353      91B7CE8A 
 353      E0510E14 
 353      8C605646 
 353      61FDD2
 354 012b C6CA59E5 		.ascii	"\306\312Y\345\254\223\363\253\342\365\017\361%\036\360"
 354      AC93F3AB 
 354      E2F50FF1 
 354      251EF0
 355 013a 585EE485 		.ascii	"X^\344\205.+\231\257\274|mFWQa\317\317\217\316\230C"
 355      2E2B99AF 
 355      BC7C6D46 
 355      575161CF 
 355      CF8FCE98 
 356 014f 18743D04 		.ascii	"\030t=\004\334@\036\011\334\006\025\216\011\014\201"
 356      DC401E09 
 356      DC06158E 
 356      090C81
 357 015e 147B7EF6 		.ascii	"\024{~\366>3\224`Li^\314_\276\306\245\000\017]\235a"
ARM GAS  C:\Users\zozo\AppData\Local\Temp\ccy30qtq.s 			page 28


 357      3E339460 
 357      4C695ECC 
 357      5FBEC6A5 
 357      000F5D9D 
 358 0173 9268C2BE 		.ascii	"\222h\302\276\367\256\257\274\203\002%K\340\303\261"
 358      F7AEAFBC 
 358      8302254B 
 358      E0C3B1
 359 0182 724E81C2 		.ascii	"rN\201\302a\270\023q\205\276\221\275\022\332\024\331"
 359      61B81371 
 359      85BE91BD 
 359      12DA14D9 
 360 0192 F51B36C7 		.ascii	"\365\0336\307\276K\261IF\025\364\261M\251\232\265\262"
 360      BE4BB149 
 360      4615F4B1 
 360      4DA99AB5 
 360      B2
 361 01a3 BDA7B225 		.ascii	"\275\247\262%\374S\025\217\327\302\247\376\343\217\277"
 361      FC53158F 
 361      D7C2A7FE 
 361      E38FBF
 362 01b2 9C567C5D 		.ascii	"\234V|]-~\372\337cT\237\302\"\276Zy\241\017\333\012"
 362      2D7EFADF 
 362      63549FC2 
 362      22BE5A79 
 362      A10FDB0A 
 363 01c6 DAE27D3F 		.ascii	"\332\342}?*\307bs\360\374\267\263;%\316\266vv\307\232"
 363      2AC76273 
 363      F0FCB7B3 
 363      3B25CEB6 
 363      7676C79A 
 364 01da 9C063CA0 		.ascii	"\234\006<\240\316R+\003\232\226\367p\375\322l\324`9"
 364      CE522B03 
 364      9A96F770 
 364      FDD26CD4 
 364      6039
 365 01ec 8415EA3C 		.ascii	"\204\025\352<\015\010A\373\233\322\307\354v;{\302\261"
 365      0D0841FB 
 365      9BD2C7EC 
 365      763B7BC2 
 365      B1
 366 01fd 4FB6A43A 		.ascii	"O\266\244::\263\031;\335\234\3528z8\2359\323\334\326"
 366      3AB3193B 
 366      DD9CEA38 
 366      7A389D39 
 366      D3DCD6
 367 0210 9461F5AD 		.ascii	"\224a\365\255\355\216\235\315v\236rR\016A\177\001\365"
 367      ED8E9DCD 
 367      769E7252 
 367      0E417F01 
 367      F5
 368 0221 C215C6   		.ascii	"\302\025\306"
 369              		.text
 370              		.section	.gnu.lto_.symbol_nodes.d9227dd5,"",%progbits
 371 0000 789C55CC 		.ascii	"x\234U\314\313\015\3020\020\004\320\261\327\361'\011"
 371      CB0DC230 
 371      1004D0B1 
ARM GAS  C:\Users\zozo\AppData\Local\Temp\ccy30qtq.s 			page 29


 371      D7F12709 
 372 0010 35D00A9D 		.ascii	"5\320\012\235M\016\010\020'\032\000\345@%(gj\000\304"
 372      4D0E0810 
 372      271A00E5 
 372      40252867 
 372      6A00C4
 373 0023 911A1006 		.ascii	"\221\032\020\006/R\274\227\321\233\325\256\000X\031"
 373      2F52BC97 
 373      D19BD5AE 
 373      005819
 374 0032 94B12070 		.ascii	"\224\261 p\270\002$\216\343\256\207\025\232\177q\032"
 374      B802248E 
 374      E3AE8715 
 374      9A7F711A 
 375 0042 23ACA3AD 		.ascii	"#\254\243\255\334P*\007\272\312\221M\345D_\3313Tn\031"
 375      DC502A07 
 375      BACA914D 
 375      E5445FD9 
 375      33546E19 
 376 0056 E7363D53 		.ascii	"\3476=S1\206!\263c;\347\202\335\214bZ\234oo#&\341y\317"
 376      318621B3 
 376      633BE782 
 376      DD8C625A 
 376      9C6F6F23 
 377 006e 69D5B6C3 		.ascii	"i\325\266\303\264}-\305&L\373\234\242\275\000\217_j"
 377      B47D2DC5 
 377      264CFB9C 
 377      A2BD008F 
 377      5F6A
 378 0080 EFB477D9 		.ascii	"\357\264w\331\233l\257\366\251\334\007u\360\270|\377"
 378      9B6CAFF6 
 378      A9DC0775 
 378      F0B87CFF 
 379 0090 47754C58 		.ascii	"GuLX\347=>}EYY"
 379      E73D3E7D 
 379      455959
 380              		.text
 381              		.section	.gnu.lto_.refs.d9227dd5,"",%progbits
 382 0000 789C6366 		.ascii	"x\234cf```d\200\002\000\000=\000\005"
 382      60606064 
 382      80020000 
 382      3D0005
 383              		.text
 384              		.section	.gnu.lto_.decls.d9227dd5,"",%progbits
 385 0000 789C9D56 		.ascii	"x\234\235V{LSg\024\277_o[\240\324\302L\206\306lY\311"
 385      7B4C5367 
 385      14BF5F6F 
 385      5BA0D4C2 
 385      4C86C66C 
 386 0016 169325C6 		.ascii	"\026\223%\306\304G\214\377-\0217\247Y\226f\304\370\207"
 386      C4478CFF 
 386      2D1137A7 
 386      599666C4 
 386      F887
 387 0028 261BB2EB 		.ascii	"&\033\262\353\326\210\205@Y\306\376\272\312P&\352\030"
 387      D6888540 
 387      59C6FEBA 
ARM GAS  C:\Users\zozo\AppData\Local\Temp\ccy30qtq.s 			page 30


 387      CA5026EA 
 387      18
 388 0039 BE001570 		.ascii	"\276\000\025p8A\221\227 \362\252\320\362*  \217\201"
 388      38419197 
 388      20F2AAD0 
 388      F22A2020 
 388      8F81
 389 004b 958705E4 		.ascii	"\225\207\005\344\015\243\"s\022\247\335\271\337\375"
 389      0DA32273 
 389      12A7DDB9 
 389      DFFD
 390 0059 2EBDB716 		.ascii	".\275\267\026\324}\311)\367\373\372;\277s\316\357|\347"
 390      D47DC929 
 390      F7FBFA3B 
 390      BF73CEEF 
 390      7CE7
 391 006b 169AA2A8 		.ascii	"\026\232\242\250oh\212r\302\332\345CQi\210\242Tp\246"
 391      6F688A72 
 391      C2DAE543 
 391      516988A2 
 391      5470A6
 392 007e 039381E5 		.ascii	"\003\223\201\345\201\005R\374R\203\025\201\335\002\273"
 392      810552FC 
 392      52831581 
 392      DD02BB
 393 008d 0D560666 		.ascii	"\015V\006f\002\253\006\263\200\325\202\325\203\265\201"
 393      02AB06B3 
 393      80D582D5 
 393      83B581
 394 009c 75807551 		.ascii	"u\200uQ\257.\316_I\3709\336\007`6\260^\260\036\202A"
 394      AF2ECE5F 
 394      49F839DE 
 394      076036B0 
 394      5EB01E82 
 395 00b1 04E7BEB8 		.ascii	"\004\347\276\270\270>\304\267\211\370\367\201\335\023"
 395      B83EC4B7 
 395      89F8F781 
 395      DD13
 396 00bf F9F783B5 		.ascii	"\371\367\203\265\020<M|:HN\356\213\253a\245\210OCj\354"
 396      103C4D7C 
 396      3A484EEE 
 396      8BAB61A5 
 396      884F436A 
 397 00d4 26DC5A0F 		.ascii	"&\334Z\017\374c`\243`\343D\233\012\267\230r\302+\324"
 397      FC6360A3 
 397      60E3449B 
 397      0AB79872 
 397      C22BD4
 398 00e7 EF296E19 		.ascii	"\357)n\031\211%\256C\034k\002\254\320CL\3678e$N\321"
 398      8925AE43 
 398      1C6B02AC 
 398      D0434CF7 
 398      3865244E 
 399 00fc 12714CA4 		.ascii	"\022qL\244\036\235\250\266\274\267\320\316\264\214v"
 399      1E9DA8B6 
 399      BCB7D0CE 
 399      B48C76
ARM GAS  C:\Users\zozo\AppData\Local\Temp\ccy30qtq.s 			page 31


 400 010b D5605E6E 		.ascii	"\325`^n\274\201\".\035\301!\202\345\362\235\004\233"
 400      BC81222E 
 400      1DC12182 
 400      E5F29D04 
 400      9B
 401 011c 029B069B 		.ascii	"\002\233\006\233q\343\343\356\317\333\366\326\262L~"
 401      71E3E3EE 
 401      CFDBF6D6 
 401      B24C7E
 402 012b DC5DF4A6 		.ascii	"\334]\364\246\\\367\314\235K\320X\340\252%\\\026\017"
 402      5CF7CC9D 
 402      4BD058E0 
 402      AA255C16 
 402      0F
 403 013c 5CF5FF23 		.ascii	"\\\365\377#\267\372er{,Cey\363-\276\3432\244Qi\271m"
 403      B7FA6572 
 403      7B2C4365 
 403      79F32DBE 
 403      E332A451 
 404 0153 79923559 		.ascii	"y\2225Y\011[\265J\316m\007\357\367Tz\3212\304=g&\017"
 404      095BB54A 
 404      CE6D07EF 
 404      F7547AD1 
 404      32C43D67 
 405 0169 76A9D65D 		.ascii	"v\251\326]gY6\236\255\266\"\027\305\341\253\025'\274"
 405      6759369E 
 405      ADB62217 
 405      C5E1AB15 
 405      27BC
 406 017b C0275085 		.ascii	"\300'P\205\267\017/,\\\361\301[n\224\375\340HVaIjW\241"
 406      B70F2F2C 
 406      5CF1C15B 
 406      6E94FDE0 
 406      48566149 
 407 0192 B5AA2BE0 		.ascii	"\265\252+\340\354\310\236\357|\217e\345(\017\251\320"
 407      ECC89EEF 
 407      7C8F65E5 
 407      280FA9D0 
 408 01a2 3544A3EB 		.ascii	"5D\243\353h\035\360`on\305\263\354\02161\226\365\261"
 408      681DF060 
 408      6F6EC5B3 
 408      EC113631 
 408      96F5B1
 409 01b5 6A289485 		.ascii	"j(\224\205\326\240l\264\206B\271h- 0\026\345\300\341"
 409      D6A06CB4 
 409      8642B968 
 409      2D203016 
 409      E5C0E1
 410 01c8 0DEE1018 		.ascii	"\015\356\020\030 ^\363\320\263'j\\\201?\027>\265gd\236"
 410      205EF3D0 
 410      B3276A5C 
 410      813F173E 
 410      B567649E 
 411 01dc C615C8B8 		.ascii	"\306\025\310\270m\311\302\323|\345\252\263,\267bY\177"
 411      6DC9C2D3 
 411      7CE5AAB3 
 411      2CB76259 
ARM GAS  C:\Users\zozo\AppData\Local\Temp\ccy30qtq.s 			page 32


 411      7F
 412 01ed 19D205A0 		.ascii	"\031\322\005\240| (\000\002\012\025\242U\360\271W\316"
 412      7C202800 
 412      020A15A2 
 412      55F0B957 
 412      CE
 413 01fe 1772BBE1 		.ascii	"\027r\273\341F\273\202\336\214\253\035\230/\276\263"
 413      46BB82DE 
 413      8CAB1D98 
 413      2FBEB3
 414 020d 429BC656 		.ascii	"B\233\306V\0278\256g\226\304\234\216e\317\260v\247\363"
 414      1738AE67 
 414      96C49C8E 
 414      65CFB076 
 414      A7F3
 415 021f 03D69B73 		.ascii	"\003\326\233sB7\027\023\247\270g\2349*BZ\360\214\037"
 415      42371713 
 415      A7B8679C 
 415      392A425A 
 415      F08C1F
 416 0232 393B22A3 		.ascii	"9;\"\243\243x\315,q\011\032`\311(p\304\307\235\243S"
 416      A378CD2C 
 416      71091A60 
 416      C92870C4 
 416      C79DA353 
 417 0246 D88CC3EC 		.ascii	"\330\214\303\354K\247\023\341\310\250XDR,\220\334\302"
 417      4BA713E1 
 417      C8A85844 
 417      522C90DC 
 417      C2
 418 0257 24CF7306 		.ascii	"$\317s\006oy\321\227\021f\271\220\320\232\240\306,\031"
 418      6F79D197 
 418      1166B990 
 418      D09AA0C6 
 418      2C19
 419 0269 6999CA6C 		.ascii	"i\231\312l\266\332\351\374\004\023\224\210\010J\004"
 419      B6DAE9FC 
 419      04139488 
 419      084A04
 420 0278 82DB98C0 		.ascii	"\202\333\230\300\2325\031B\337\344\375-Cm\263|\026v"
 420      9A351942 
 420      DFE4FD2D 
 420      436DB37C 
 420      1676
 421 028a 6B5DBD9A 		.ascii	"k]\275\232\345\031\370\034JE\024\245\002E\031\246HM"
 421      E519F81C 
 421      4A4514A5 
 421      024519A6 
 421      484D
 422 029c B1B1480E 		.ascii	"\261\261H\016\357^\334\252\275\370B\024\3254\230\227"
 422      EF5EDCAA 
 422      BDF84214 
 422      D5349897 
 423 02ac 96B302CB 		.ascii	"\226\263\002\313Y\216\210\236\255\026{\252\234\256\341"
 423      598E889E 
 423      AD167BAA 
 423      9CAEE1
ARM GAS  C:\Users\zozo\AppData\Local\Temp\ccy30qtq.s 			page 33


 424 02bb 9348AB3D 		.ascii	"\223H\253=i^\301\027\221{M(\002\034P\245(\203J!\003"
 424      695EC117 
 424      917B4D28 
 424      021C50A5 
 424      28834A21 
 425 02d0 13CE20FB 		.ascii	"\023\316 \373\342l\256\2278\032\227\210+\334\035I\367"
 425      E26CAE97 
 425      381A9788 
 425      2BDC1D49 
 425      F7
 426 02e1 D2E6D29F 		.ascii	"\322\346\322\237k\350>\"\331\014{\\\306\227<\373K\203"
 426      6BE83E22 
 426      D90C7B5C 
 426      C6973CFB 
 426      4B83
 427 02f3 AB647041 		.ascii	"\253dpAU\242\200UB\300j\034\320b\352|\251\240\347x\216"
 427      55A28055 
 427      42C06A1C 
 427      D062EA7C 
 427      A9A0E778 
 428 0308 73C333E7 		.ascii	"s\3033\347T\300a/\260\2676\273\311f\026q\230\005\016"
 428      54C0612F 
 428      B0B736BB 
 428      C9661671 
 428      98050E
 429 031b 0B2F9BC9 		.ascii	"\013/\233\311tFE\037\341\207\246\344\305\374\260\017"
 429      7446451F 
 429      E187A6E4 
 429      C5FCB00F 
 430 032b 5F755396 		.ascii	"_uS\226\270u5\"\202\032\201\240\026\023\214^\232m\365"
 430      B8753522 
 430      821A81A0 
 430      16138C5E 
 430      9A6DF5
 431 033e A14FF104 		.ascii	"\241O\361\0047\357<:\255\344\011L\271b\202:\021A\235"
 431      37EF3C3A 
 431      ADE4094C 
 431      B962823A 
 431      11419D
 432 0351 40508F09 		.ascii	"@P\217\011\272\253\216\035\363\2463x\002a:\003\370\351"
 432      BAAB8E1D 
 432      F3A63378 
 432      02613A03 
 432      F8E9
 433 0363 3CD59C6A 		.ascii	"<\325\234j\246\361\326\311}-\263\331\316,\320H\265\026"
 433      A6F1D6C9 
 433      7D2DB3D9 
 433      CE2CD048 
 433      B516
 434 0375 8F9D2389 		.ascii	"\217\235#\211\245WSh\335\032\3641\214W3\314\\\000\231"
 434      A5575368 
 434      DD1AF431 
 434      8C5733CC 
 434      5C0099
 435 0388 392B88DE 		.ascii	"9+\210\336\010\242\363\023\354\340'\270\011\272\321"
 435      08A2F313 
 435      ECE027B8 
ARM GAS  C:\Users\zozo\AppData\Local\Temp\ccy30qtq.s 			page 34


 435      09BAD1
 436 0397 E09AE000 		.ascii	"\340\232\340\000\325\342+!1\316\234(\307W\247i\361\352"
 436      D5E22B21 
 436      31CE9C28 
 436      C757A769 
 436      F1EA
 437 03a9 DC3D7FD1 		.ascii	"\334=\177\321\342\273\344\325i\301\275\274+\\\235\351"
 437      E2BBE4D5 
 437      69C1BDBC 
 437      2B5C9DE9 
 438 03b9 DCC2025F 		.ascii	"\334\302\002_\372*_B\242\315f\365\343\032\301:\376m"
 438      FA2A5F42 
 438      A2CD66F5 
 438      E31AC13A 
 438      FE6D
 439 03cb 9CDB9AC2 		.ascii	"\234\333\232\302^\026\246\010\274P\253H\210VA\2106,"
 439      5E16A608 
 439      BC50AB48 
 439      88564188 
 439      362C
 440 03dd 444B4EE3 		.ascii	"DKN\343Q$\016\331$\271?\367$\367\247m\362i\212\212\036"
 440      51240ED9 
 440      24B93FF7 
 440      24F7A76D 
 440      F2698A8A 
 441 03f2 E0435E1D 		.ascii	"\340C^\035\313x\242\306!3\0323\217j\211\356\340\200"
 441      CB78A2C6 
 441      21331A33 
 441      8F6A89EE 
 441      E080
 442 0404 DA45E1DA 		.ascii	"\332E\341\332\205p\0358\\M\322\223:o\372o\236\301vu"
 442      85701D38 
 442      5C4DD293 
 442      3A6FFA6F 
 442      9EC17675 
 443 0418 CEACC00C 		.ascii	"\316\254\300\014\366\331\033\213\014\334\205\357\024"
 443      F6D91B8B 
 443      0CDC85EF 
 443      14
 444 0425 31740A0C 		.ascii	"1t\012\014]\374\273#\251dJA\237\2401C\307\331\307\351"
 444      5DFCBB23 
 444      A9644A41 
 444      9FA03143 
 444      C7D9C7E9 
 445 0439 DEAA782E 		.ascii	"\336\252x.\3657z\037B7\023\236\215?\326\360\335\364"
 445      F5377A1F 
 445      4237139E 
 445      8D3FD6F0 
 445      DDF4
 446 044b E074DF83 		.ascii	"\340t\337\203\023\337\320\344\207\037q\015\355\001y"
 446      13DFD0E4 
 446      871F710D 
 446      ED0179
 447 045a FE7435B4 		.ascii	"\376t5\264\033\271:\032\373Os\273\227\220L\374\353y"
 447      1BB93A1A 
 447      FB4F73BB 
 447      97904CFC 
ARM GAS  C:\Users\zozo\AppData\Local\Temp\ccy30qtq.s 			page 35


 447      EB79
 448 046c C1A5CBF4 		.ascii	"\301\245\313\3644W\256>\356z\237#\033\360\013^\024z"
 448      3457AE3E 
 448      EE7A9F23 
 448      1BF00B5E 
 448      147A
 449 047e 80D4B874 		.ascii	"\200\324\270t\370\013\350\322\306\302!\231\004\335#"
 449      F80BE8D2 
 449      C6C22199 
 449      04DD23
 450 048d 41F71274 		.ascii	"A\367\022t/F\367\331{\272\245h\2567.t\037A\367a\364"
 450      2F46F7D9 
 450      7BBAA568 
 450      AE372E74 
 450      1F41F761 
 451 04a2 CFA7CD49 		.ascii	"\317\247\315I*\011\272E\202\356'\350~\214.k\355\035"
 451      2A09BA45 
 451      82EE27E8 
 451      7E8C2E6B 
 451      ED1D
 452 04b4 A0E9245A 		.ascii	"\240\351$Z2>Z~|\316O=+\366\306[\247\223\346\016.\315"
 452      323E5A7E 
 452      7CCE4F3D 
 452      2BF6C65B 
 452      A793E60E 
 453 04ca FD55E943 		.ascii	"\375U\351C'c\260\354\371p^\226\222\374\316\331\027\256"
 453      2763B0EC 
 453      F9705E96 
 453      92FCCED9 
 453      17AE
 454 04dc 69588486 		.ascii	"iX\204\206\241\210A\227\244Z\361\257\034h\251\310\006"
 454      A1884197 
 454      A45AF1AF 
 454      1C68A9C8 
 454      06
 455 04ed 21851B89 		.ascii	"!\205\033\211\206@H-\021\362!\034\332y!\035\361'\247"
 455      8640482D 
 455      11F2211C 
 455      DA79211D 
 455      F127A7
 456 0500 E4BCF66F 		.ascii	"\344\274\366o\350\";\237\333\237\212\204L\232\363WB"
 456      E8223B9F 
 456      DB9F8A84 
 456      4C9AF357 
 456      42
 457 0511 26A390C9 		.ascii	"&\243\220\311\200+\223G\310\225\212\007\336\021\317"
 457      802B9347 
 457      C8958A07 
 457      DE11CF
 458 0520 A9FCF15B 		.ascii	"\251\374\361[=-\021rT\322\2441\"\344\030\026\262k\270"
 458      3D2D1172 
 458      54D2A431 
 458      22E41816 
 458      B26BB8
 459 0533 7C508AAE 		.ascii	"|P\212\256\220\310>N\320\343\030\235\223\037w\314O\202"
 459      90C83E4E 
 459      D0E3189D 
ARM GAS  C:\Users\zozo\AppData\Local\Temp\ccy30qtq.s 			page 36


 459      931F77CC 
 459      4F82
 460 0545 2E94A027 		.ascii	".\224\240'\220Z\310}\002;\374\236\376k\271&0\235\373"
 460      905AC87D 
 460      023BFC9E 
 460      FE6BB926 
 460      309DFB
 461 0558 87A47A1B 		.ascii	"\207\244z\033\274M\360K\234\237\246I\024\010\200\306"
 461      BC4DF04B 
 461      9C9FA649 
 461      140880C6 
 462 0568 D2967125 		.ascii	"\322\226q%\0068\342\353\252v\035vGMa\324t\226u\302\027"
 462      0638E2EB 
 462      AA761D76 
 462      474D61D4 
 462      749675C2 
 463 057d A3321212 		.ascii	"\2432\022\022X\005\222b\2461\246j\352E\232\037\217I"
 463      58059262 
 463      A631A66A 
 463      EA459A1F 
 463      8F49
 464 058f 7E153383 		.ascii	"~\0253\203\002)e\264\336`\334\264Q\271\343\313\335\332"
 464      022965B4 
 464      DE60DCB4 
 464      51B9E3CB 
 464      DDDA
 465 05a1 20EAC3F5 		.ascii	" \352\303\365\373v0\006&2\304\310|\373upxtd(\263O\027"
 465      FB763006 
 465      2632C4C8 
 465      7CFB7570 
 465      78746428 
 466 05b8 1C1EB479 		.ascii	"\034\036\264y_h\2141&\202\211Z\377=\365~PLpL\224\356"
 466      5F688C31 
 466      2682895A 
 466      FF3DF57E 
 466      504C704C 
 467 05ce D0E7FAFD 		.ascii	"\320\347\372\375:\275!j\273>*d\177\030\263\323\020\021"
 467      3ABD216A 
 467      BB3E2A64 
 467      7F18B3D3 
 467      1011
 468 05e0 6DDC167D 		.ascii	"m\334\026}@\273\014\203\356\020\270\253\211{p\030\303"
 468      40BB0C83 
 468      EE10B8AB 
 468      897B7018 
 468      C3
 469 05f1 44BC061D 		.ascii	"D\274\006\035J\371\023\364v\000c\017\177Wt&\322\000"
 469      4AF913F4 
 469      7600630F 
 469      7F577426 
 469      D200
 470 0603 7EAB053E 		.ascii	"~\253\005>\306\270'\344 \023\035\241\013\017\013\211"
 470      C6B827E4 
 470      20131DA1 
 470      0B0F0B89 
 471 0613 D41B63DE 		.ascii	"\324\033c\336%_\354`\214_1Q\334GHT\270\301\217\234~"
 471      255FEC60 
ARM GAS  C:\Users\zozo\AppData\Local\Temp\ccy30qtq.s 			page 37


 471      8C5F3151 
 471      DC474854 
 471      B8C18F9C 
 472 0628 16C9303F 		.ascii	"\026\3110?1;\303}\005wcx\304;\344y\267\341\000\371V"
 472      313BC37D 
 472      05776378 
 472      C43BE479 
 472      B7E100F9 
 473 063d C1A9B315 		.ascii	"\301\251\263\025\230>\375Qo\014\002V}hHX0\023j\324\207"
 473      983EFD51 
 473      6F0C0256 
 473      7D684858 
 473      30136AD4 
 474 0652 1B0297CC 		.ascii	"\033\002\227\314=(\346\013\375~(5\000\374\014F&\322"
 474      3D28E60B 
 474      FD7E2835 
 474      00FC0C46 
 474      26D2
 475 0664 CD310087 		.ascii	"\3151\000\207\011\012;\270\007\316\031x\014\015;\270"
 475      090A3BB8 
 475      07CE1978 
 475      0C0D3BB8 
 476 0674 5DFF8322 		.ascii	"]\377\203\"\222\371n\323F\356s\303\026\334\225\015["
 476      92F96ED3 
 476      46EE73C3 
 476      16DC950D 
 476      5B
 477 0685 FE0369E2 		.ascii	"\376\003i\342\325\023"
 477      D513
 478              		.text
 479              		.section	.gnu.lto_.symtab.d9227dd5,"",%progbits
 480 0000 43795379 		.ascii	"CySysPmSleep\000\000\000\000\000\000\000\000\000\000"
 480      73506D53 
 480      6C656570 
 480      00000000 
 480      00000000 
 481 0016 0000B500 		.ascii	"\000\000\265\000\000\000CySysPmDeepSleep\000\000\000"
 481      00004379 
 481      53797350 
 481      6D446565 
 481      70536C65 
 482 002f 00000000 		.ascii	"\000\000\000\000\000\000\000\000\000\267\000\000\000"
 482      00000000 
 482      00B70000 
 482      00
 483 003c 43795379 		.ascii	"CySysPmHibernate\000\000\000\000\000\000\000\000\000"
 483      73506D48 
 483      69626572 
 483      6E617465 
 483      00000000 
 484 0055 000000B9 		.ascii	"\000\000\000\271\000\000\000CySysPmSetWakeupPolarit"
 484      00000043 
 484      79537973 
 484      506D5365 
 484      7457616B 
 485 0073 79000000 		.ascii	"y\000\000\000\000\000\000\000\000\000\000\000\000\275"
 485      00000000 
ARM GAS  C:\Users\zozo\AppData\Local\Temp\ccy30qtq.s 			page 38


 485      00000000 
 485      00BD
 486 0081 00000043 		.ascii	"\000\000\000CySysPmGetResetReason\000\000\000\000\000"
 486      79537973 
 486      506D4765 
 486      74526573 
 486      65745265 
 487 009e 00000000 		.ascii	"\000\000\000\000\000\000\000\300\000\000\000CySysPm"
 487      000000C0 
 487      00000043 
 487      79537973 
 487      506D
 488 00b0 46726565 		.ascii	"FreezeIo\000\000\000\000\000\000\000\000\000\000\000"
 488      7A65496F 
 488      00000000 
 488      00000000 
 488      000000
 489 00c3 00C20000 		.ascii	"\000\302\000\000\000CySysPmStop\000\000\000\000\000"
 489      00437953 
 489      7973506D 
 489      53746F70 
 489      00000000 
 490 00d8 00000000 		.ascii	"\000\000\000\000\000\000\000\304\000\000\000CySysPm"
 490      000000C4 
 490      00000043 
 490      79537973 
 490      506D
 491 00ea 556E6672 		.ascii	"UnfreezeIo\000\000\000\000\000\000\000\000\000\000\000"
 491      65657A65 
 491      496F0000 
 491      00000000 
 491      00000000 
 492 00ff 00C60000 		.ascii	"\000\306\000\000\000CyExitCriticalSection\000\000\002"
 492      00437945 
 492      78697443 
 492      72697469 
 492      63616C53 
 493 011c 00000000 		.ascii	"\000\000\000\000\000\000\000\000\000\317\000\000\000"
 493      00000000 
 493      00CF0000 
 493      00
 494 0129 4379456E 		.ascii	"CyEnterCriticalSection\000\000\002\000\000\000\000\000"
 494      74657243 
 494      72697469 
 494      63616C53 
 494      65637469 
 495 0147 00000000 		.ascii	"\000\000\000\000\322\000\000\000CySysClkWriteSysclk"
 495      D2000000 
 495      43795379 
 495      73436C6B 
 495      57726974 
 496 0162 44697600 		.ascii	"Div\000\000\002\000\000\000\000\000\000\000\000\000"
 496      00020000 
 496      00000000 
 496      000000
 497 0171 D4000000 		.ascii	"\324\000\000\000"
 498              		.text
ARM GAS  C:\Users\zozo\AppData\Local\Temp\ccy30qtq.s 			page 39


 499              		.section	.gnu.lto_.opts,"",%progbits
 500 0000 272D666E 		.ascii	"'-fno-trapv' '-mcpu=cortex-m0' '-mthumb' '-g' '-Os'"
 500      6F2D7472 
 500      61707627 
 500      20272D6D 
 500      6370753D 
 501 0033 20272D66 		.ascii	" '-ffunction-sections' '-flto' '-ffat-lto-objects'\000"
 501      66756E63 
 501      74696F6E 
 501      2D736563 
 501      74696F6E 
 502              		.text
 503              		.cfi_sections	.debug_frame
 504              		.section	.text.CySysPmSleep,"ax",%progbits
 505              		.align	1
 506              		.global	CySysPmSleep
 507              		.code	16
 508              		.thumb_func
 509              		.type	CySysPmSleep, %function
 510              	CySysPmSleep:
 511              	.LFB3:
 512              		.file 1 ".\\Generated_Source\\PSoC4\\cyPm.c"
   1:.\Generated_Source\PSoC4/cyPm.c **** /*******************************************************************************
   2:.\Generated_Source\PSoC4/cyPm.c **** * File Name: cyPm.c
   3:.\Generated_Source\PSoC4/cyPm.c **** * Version 5.30
   4:.\Generated_Source\PSoC4/cyPm.c **** *
   5:.\Generated_Source\PSoC4/cyPm.c **** *  Description:
   6:.\Generated_Source\PSoC4/cyPm.c **** *   Provides an API for the power management.
   7:.\Generated_Source\PSoC4/cyPm.c **** *
   8:.\Generated_Source\PSoC4/cyPm.c **** *  Note:
   9:.\Generated_Source\PSoC4/cyPm.c **** *   Documentation of the API's in this file is located in the
  10:.\Generated_Source\PSoC4/cyPm.c **** *   System Reference Guide provided with PSoC Creator.
  11:.\Generated_Source\PSoC4/cyPm.c **** *
  12:.\Generated_Source\PSoC4/cyPm.c **** ********************************************************************************
  13:.\Generated_Source\PSoC4/cyPm.c **** * Copyright 2011-2015, Cypress Semiconductor Corporation.  All rights reserved.
  14:.\Generated_Source\PSoC4/cyPm.c **** * You may use this file only in accordance with the license, terms, conditions,
  15:.\Generated_Source\PSoC4/cyPm.c **** * disclaimers, and limitations in the end user license agreement accompanying
  16:.\Generated_Source\PSoC4/cyPm.c **** * the software package with which this file was provided.
  17:.\Generated_Source\PSoC4/cyPm.c **** *******************************************************************************/
  18:.\Generated_Source\PSoC4/cyPm.c **** 
  19:.\Generated_Source\PSoC4/cyPm.c **** #include "cyPm.h"
  20:.\Generated_Source\PSoC4/cyPm.c **** #include "CyLib.h"
  21:.\Generated_Source\PSoC4/cyPm.c **** 
  22:.\Generated_Source\PSoC4/cyPm.c **** 
  23:.\Generated_Source\PSoC4/cyPm.c **** /*******************************************************************************
  24:.\Generated_Source\PSoC4/cyPm.c **** * Function Name: CySysPmSleep
  25:.\Generated_Source\PSoC4/cyPm.c **** ********************************************************************************
  26:.\Generated_Source\PSoC4/cyPm.c **** *
  27:.\Generated_Source\PSoC4/cyPm.c **** * Summary:
  28:.\Generated_Source\PSoC4/cyPm.c **** *  Puts the part into the Sleep state. This is a CPU-centric power mode.
  29:.\Generated_Source\PSoC4/cyPm.c **** *  It means that the CPU has indicated that it is in the sleep mode and
  30:.\Generated_Source\PSoC4/cyPm.c **** *  its main clock can be removed. It is identical to Active from a peripheral
  31:.\Generated_Source\PSoC4/cyPm.c **** *  point of view. Any enabled interrupts can cause wakeup from the  Sleep mode.
  32:.\Generated_Source\PSoC4/cyPm.c **** *
  33:.\Generated_Source\PSoC4/cyPm.c **** * Parameters:
  34:.\Generated_Source\PSoC4/cyPm.c **** *  None
  35:.\Generated_Source\PSoC4/cyPm.c **** *
ARM GAS  C:\Users\zozo\AppData\Local\Temp\ccy30qtq.s 			page 40


  36:.\Generated_Source\PSoC4/cyPm.c **** * Return:
  37:.\Generated_Source\PSoC4/cyPm.c **** *  None
  38:.\Generated_Source\PSoC4/cyPm.c **** *
  39:.\Generated_Source\PSoC4/cyPm.c **** *******************************************************************************/
  40:.\Generated_Source\PSoC4/cyPm.c **** void CySysPmSleep(void)
  41:.\Generated_Source\PSoC4/cyPm.c **** {
 513              		.loc 1 41 0
 514              		.cfi_startproc
 515 0000 08B5     		push	{r3, lr}
 516              		.cfi_def_cfa_offset 8
 517              		.cfi_offset 3, -8
 518              		.cfi_offset 14, -4
  42:.\Generated_Source\PSoC4/cyPm.c ****     uint8 interruptState;
  43:.\Generated_Source\PSoC4/cyPm.c **** 
  44:.\Generated_Source\PSoC4/cyPm.c ****     interruptState = CyEnterCriticalSection();
 519              		.loc 1 44 0
 520 0002 FFF7FEFF 		bl	CyEnterCriticalSection
 521              	.LVL0:
  45:.\Generated_Source\PSoC4/cyPm.c **** 
  46:.\Generated_Source\PSoC4/cyPm.c ****     /* CM0 enters Sleep mode upon execution of WFI */
  47:.\Generated_Source\PSoC4/cyPm.c ****     CY_PM_CM0_SCR_REG &= (uint32) (~CY_PM_CM0_SCR_SLEEPDEEP);
 522              		.loc 1 47 0
 523 0006 0421     		mov	r1, #4
 524 0008 034A     		ldr	r2, .L2
 525 000a 1368     		ldr	r3, [r2]
 526 000c 8B43     		bic	r3, r1
 527 000e 1360     		str	r3, [r2]
  48:.\Generated_Source\PSoC4/cyPm.c **** 
  49:.\Generated_Source\PSoC4/cyPm.c ****     /* Sleep and wait for interrupt */
  50:.\Generated_Source\PSoC4/cyPm.c ****     CY_PM_WFI;
 528              		.loc 1 50 0
 529              	@ 50 ".\Generated_Source\PSoC4\cyPm.c" 1
 530 0010 30BF     		WFI 
 531              	
 532              	@ 0 "" 2
  51:.\Generated_Source\PSoC4/cyPm.c **** 
  52:.\Generated_Source\PSoC4/cyPm.c ****     CyExitCriticalSection(interruptState);
 533              		.loc 1 52 0
 534              		.code	16
 535 0012 FFF7FEFF 		bl	CyExitCriticalSection
 536              	.LVL1:
  53:.\Generated_Source\PSoC4/cyPm.c **** }
 537              		.loc 1 53 0
 538              		@ sp needed
 539 0016 08BD     		pop	{r3, pc}
 540              	.L3:
 541              		.align	2
 542              	.L2:
 543 0018 10ED00E0 		.word	-536810224
 544              		.cfi_endproc
 545              	.LFE3:
 546              		.size	CySysPmSleep, .-CySysPmSleep
 547              		.section	.text.CySysPmDeepSleep,"ax",%progbits
 548              		.align	1
 549              		.global	CySysPmDeepSleep
 550              		.code	16
 551              		.thumb_func
ARM GAS  C:\Users\zozo\AppData\Local\Temp\ccy30qtq.s 			page 41


 552              		.type	CySysPmDeepSleep, %function
 553              	CySysPmDeepSleep:
 554              	.LFB4:
  54:.\Generated_Source\PSoC4/cyPm.c **** 
  55:.\Generated_Source\PSoC4/cyPm.c **** 
  56:.\Generated_Source\PSoC4/cyPm.c **** /*******************************************************************************
  57:.\Generated_Source\PSoC4/cyPm.c **** * Function Name: CySysPmDeepSleep
  58:.\Generated_Source\PSoC4/cyPm.c **** ********************************************************************************
  59:.\Generated_Source\PSoC4/cyPm.c **** *
  60:.\Generated_Source\PSoC4/cyPm.c **** * Summary:
  61:.\Generated_Source\PSoC4/cyPm.c **** *  Puts the part into the Deep Sleep state. If the firmware attempts to enter
  62:.\Generated_Source\PSoC4/cyPm.c **** *  this mode before the system is ready (that is, when
  63:.\Generated_Source\PSoC4/cyPm.c **** *  PWR_CONTROL.LPM_READY = 0), then the device will go into the Sleep mode
  64:.\Generated_Source\PSoC4/cyPm.c **** *  instead and automatically enter the originally intended mode when the
  65:.\Generated_Source\PSoC4/cyPm.c **** *  holdoff expires.
  66:.\Generated_Source\PSoC4/cyPm.c **** *
  67:.\Generated_Source\PSoC4/cyPm.c **** *  The wakeup occurs when an interrupt is received from a DeepSleep or
  68:.\Generated_Source\PSoC4/cyPm.c **** *  Hibernate peripheral. For more details, see a corresponding
  69:.\Generated_Source\PSoC4/cyPm.c **** *  peripheral's datasheet.
  70:.\Generated_Source\PSoC4/cyPm.c **** *
  71:.\Generated_Source\PSoC4/cyPm.c **** * Parameters:
  72:.\Generated_Source\PSoC4/cyPm.c **** *  None
  73:.\Generated_Source\PSoC4/cyPm.c **** *
  74:.\Generated_Source\PSoC4/cyPm.c **** * Return:
  75:.\Generated_Source\PSoC4/cyPm.c **** *  None
  76:.\Generated_Source\PSoC4/cyPm.c **** *
  77:.\Generated_Source\PSoC4/cyPm.c **** *******************************************************************************/
  78:.\Generated_Source\PSoC4/cyPm.c **** void CySysPmDeepSleep(void)
  79:.\Generated_Source\PSoC4/cyPm.c **** {
 555              		.loc 1 79 0
 556              		.cfi_startproc
 557 0000 37B5     		push	{r0, r1, r2, r4, r5, lr}
 558              		.cfi_def_cfa_offset 24
 559              		.cfi_offset 0, -24
 560              		.cfi_offset 1, -20
 561              		.cfi_offset 2, -16
 562              		.cfi_offset 4, -12
 563              		.cfi_offset 5, -8
 564              		.cfi_offset 14, -4
  80:.\Generated_Source\PSoC4/cyPm.c ****     uint8 interruptState;
  81:.\Generated_Source\PSoC4/cyPm.c ****     #if(CY_IP_SRSSV2)
  82:.\Generated_Source\PSoC4/cyPm.c ****         volatile uint32 clkSelectReg;
  83:.\Generated_Source\PSoC4/cyPm.c ****     #endif /* (CY_IP_SRSSV2) */
  84:.\Generated_Source\PSoC4/cyPm.c **** 
  85:.\Generated_Source\PSoC4/cyPm.c ****     interruptState = CyEnterCriticalSection();
 565              		.loc 1 85 0
 566 0002 FFF7FEFF 		bl	CyEnterCriticalSection
 567              	.LVL2:
  86:.\Generated_Source\PSoC4/cyPm.c **** 
  87:.\Generated_Source\PSoC4/cyPm.c ****     #if(CY_IP_SRSSV2)
  88:.\Generated_Source\PSoC4/cyPm.c ****         /* Device enters DeepSleep mode when CPU asserts SLEEPDEEP signal */
  89:.\Generated_Source\PSoC4/cyPm.c ****         CY_PM_PWR_CONTROL_REG &= (uint32) (~CY_PM_PWR_CONTROL_HIBERNATE);
  90:.\Generated_Source\PSoC4/cyPm.c ****     #endif /* (CY_IP_SRSSV2) */
  91:.\Generated_Source\PSoC4/cyPm.c **** 
  92:.\Generated_Source\PSoC4/cyPm.c ****     #if (CY_IP_CPUSS && CY_IP_SRSSV2)
  93:.\Generated_Source\PSoC4/cyPm.c ****         CY_PM_CPUSS_CONFIG_REG |= CY_PM_CPUSS_CONFIG_FLSH_ACC_BYPASS;
  94:.\Generated_Source\PSoC4/cyPm.c ****     #endif /* (CY_IP_CPUSS && CY_IP_SRSSV2) */
ARM GAS  C:\Users\zozo\AppData\Local\Temp\ccy30qtq.s 			page 42


  95:.\Generated_Source\PSoC4/cyPm.c **** 
  96:.\Generated_Source\PSoC4/cyPm.c ****     /* Adjust delay to wait for references to settle on wakeup from Deep Sleep */
  97:.\Generated_Source\PSoC4/cyPm.c ****     CY_PM_PWR_KEY_DELAY_REG = CY_SFLASH_DPSLP_KEY_DELAY_REG;
  98:.\Generated_Source\PSoC4/cyPm.c **** 
  99:.\Generated_Source\PSoC4/cyPm.c ****     /* CM0 enters DeepSleep/Hibernate mode upon execution of WFI */
 100:.\Generated_Source\PSoC4/cyPm.c ****     CY_PM_CM0_SCR_REG |= CY_PM_CM0_SCR_SLEEPDEEP;
 568              		.loc 1 100 0
 569 0006 0421     		mov	r1, #4
  89:.\Generated_Source\PSoC4/cyPm.c ****     #endif /* (CY_IP_SRSSV2) */
 570              		.loc 1 89 0
 571 0008 0D4A     		ldr	r2, .L5
 101:.\Generated_Source\PSoC4/cyPm.c **** 
 102:.\Generated_Source\PSoC4/cyPm.c ****     #if(CY_IP_SRSSV2)
 103:.\Generated_Source\PSoC4/cyPm.c ****         /* Preserve system clock configuration and
 104:.\Generated_Source\PSoC4/cyPm.c ****         * reduce sysclk to <=12 MHz (Cypress ID #158710, #179888).
 105:.\Generated_Source\PSoC4/cyPm.c ****         */
 106:.\Generated_Source\PSoC4/cyPm.c ****         clkSelectReg = CY_SYS_CLK_SELECT_REG;
 572              		.loc 1 106 0
 573 000a 0E4D     		ldr	r5, .L5+4
  89:.\Generated_Source\PSoC4/cyPm.c ****     #endif /* (CY_IP_SRSSV2) */
 574              		.loc 1 89 0
 575 000c 1368     		ldr	r3, [r2]
  85:.\Generated_Source\PSoC4/cyPm.c **** 
 576              		.loc 1 85 0
 577 000e 041C     		mov	r4, r0
 578              	.LVL3:
  89:.\Generated_Source\PSoC4/cyPm.c ****     #endif /* (CY_IP_SRSSV2) */
 579              		.loc 1 89 0
 580 0010 5B00     		lsl	r3, r3, #1
 581 0012 5B08     		lsr	r3, r3, #1
 582 0014 1360     		str	r3, [r2]
  97:.\Generated_Source\PSoC4/cyPm.c **** 
 583              		.loc 1 97 0
 584 0016 0C4B     		ldr	r3, .L5+8
 585 0018 0C4A     		ldr	r2, .L5+12
 586 001a 1B88     		ldrh	r3, [r3]
 107:.\Generated_Source\PSoC4/cyPm.c ****         CySysClkWriteSysclkDiv(CY_SYS_CLK_SYSCLK_DIV4);
 587              		.loc 1 107 0
 588 001c 0220     		mov	r0, #2
  97:.\Generated_Source\PSoC4/cyPm.c **** 
 589              		.loc 1 97 0
 590 001e 9BB2     		uxth	r3, r3
 591 0020 1360     		str	r3, [r2]
 100:.\Generated_Source\PSoC4/cyPm.c **** 
 592              		.loc 1 100 0
 593 0022 0B4A     		ldr	r2, .L5+16
 594 0024 1368     		ldr	r3, [r2]
 595 0026 0B43     		orr	r3, r1
 596 0028 1360     		str	r3, [r2]
 106:.\Generated_Source\PSoC4/cyPm.c ****         CySysClkWriteSysclkDiv(CY_SYS_CLK_SYSCLK_DIV4);
 597              		.loc 1 106 0
 598 002a 2B68     		ldr	r3, [r5]
 599 002c 0193     		str	r3, [sp, #4]
 600              		.loc 1 107 0
 601 002e FFF7FEFF 		bl	CySysClkWriteSysclkDiv
 602              	.LVL4:
 108:.\Generated_Source\PSoC4/cyPm.c ****     #endif /* (CY_IP_SRSSV2) */
ARM GAS  C:\Users\zozo\AppData\Local\Temp\ccy30qtq.s 			page 43


 109:.\Generated_Source\PSoC4/cyPm.c **** 
 110:.\Generated_Source\PSoC4/cyPm.c ****     /* Sleep and wait for interrupt */
 111:.\Generated_Source\PSoC4/cyPm.c ****     CY_PM_WFI;
 603              		.loc 1 111 0
 604              	@ 111 ".\Generated_Source\PSoC4\cyPm.c" 1
 605 0032 30BF     		WFI 
 606              	
 607              	@ 0 "" 2
 112:.\Generated_Source\PSoC4/cyPm.c **** 
 113:.\Generated_Source\PSoC4/cyPm.c ****     #if(CY_IP_SRSSV2)
 114:.\Generated_Source\PSoC4/cyPm.c ****         /* Restore system clock configuration */
 115:.\Generated_Source\PSoC4/cyPm.c ****         CY_SYS_CLK_SELECT_REG = clkSelectReg;
 608              		.loc 1 115 0
 609              		.code	16
 610 0034 019B     		ldr	r3, [sp, #4]
 116:.\Generated_Source\PSoC4/cyPm.c ****     #endif /* (CY_IP_SRSSV2) */
 117:.\Generated_Source\PSoC4/cyPm.c **** 
 118:.\Generated_Source\PSoC4/cyPm.c ****     #if (CY_IP_CPUSS && CY_IP_SRSSV2)
 119:.\Generated_Source\PSoC4/cyPm.c ****         CY_PM_CPUSS_CONFIG_REG &= (uint32) (~CY_PM_CPUSS_CONFIG_FLSH_ACC_BYPASS);
 120:.\Generated_Source\PSoC4/cyPm.c ****     #endif /* (CY_IP_CPUSS && CY_IP_SRSSV2) */
 121:.\Generated_Source\PSoC4/cyPm.c **** 
 122:.\Generated_Source\PSoC4/cyPm.c ****     CyExitCriticalSection(interruptState);
 611              		.loc 1 122 0
 612 0036 201C     		mov	r0, r4
 115:.\Generated_Source\PSoC4/cyPm.c ****     #endif /* (CY_IP_SRSSV2) */
 613              		.loc 1 115 0
 614 0038 2B60     		str	r3, [r5]
 615              		.loc 1 122 0
 616 003a FFF7FEFF 		bl	CyExitCriticalSection
 617              	.LVL5:
 123:.\Generated_Source\PSoC4/cyPm.c **** }
 618              		.loc 1 123 0
 619              		@ sp needed
 620              	.LVL6:
 621 003e 37BD     		pop	{r0, r1, r2, r4, r5, pc}
 622              	.L6:
 623              		.align	2
 624              	.L5:
 625 0040 00000B40 		.word	1074462720
 626 0044 00010B40 		.word	1074462976
 627 0048 52F1FF0F 		.word	268431698
 628 004c 0C000B40 		.word	1074462732
 629 0050 10ED00E0 		.word	-536810224
 630              		.cfi_endproc
 631              	.LFE4:
 632              		.size	CySysPmDeepSleep, .-CySysPmDeepSleep
 633              		.section	.text.CySysPmHibernate,"ax",%progbits
 634              		.align	1
 635              		.global	CySysPmHibernate
 636              		.code	16
 637              		.thumb_func
 638              		.type	CySysPmHibernate, %function
 639              	CySysPmHibernate:
 640              	.LFB5:
 124:.\Generated_Source\PSoC4/cyPm.c **** 
 125:.\Generated_Source\PSoC4/cyPm.c **** 
 126:.\Generated_Source\PSoC4/cyPm.c **** #if(CY_IP_SRSSV2)
ARM GAS  C:\Users\zozo\AppData\Local\Temp\ccy30qtq.s 			page 44


 127:.\Generated_Source\PSoC4/cyPm.c **** 
 128:.\Generated_Source\PSoC4/cyPm.c ****     /*******************************************************************************
 129:.\Generated_Source\PSoC4/cyPm.c ****     * Function Name: CySysPmHibernate
 130:.\Generated_Source\PSoC4/cyPm.c ****     ********************************************************************************
 131:.\Generated_Source\PSoC4/cyPm.c ****     *
 132:.\Generated_Source\PSoC4/cyPm.c ****     * Summary:
 133:.\Generated_Source\PSoC4/cyPm.c ****     *  Puts the part into the Hibernate state. Only SRAM and UDBs are retained;
 134:.\Generated_Source\PSoC4/cyPm.c ****     *  most internal supplies are off. Wakeup is possible from a pin or a hibernate
 135:.\Generated_Source\PSoC4/cyPm.c ****     *  comparator only.
 136:.\Generated_Source\PSoC4/cyPm.c ****     *
 137:.\Generated_Source\PSoC4/cyPm.c ****     *  It is expected that the firmware has already frozen the IO-Cells using
 138:.\Generated_Source\PSoC4/cyPm.c ****     *  CySysPmFreezeIo() function before the call to this function. If this is
 139:.\Generated_Source\PSoC4/cyPm.c ****     *  omitted, the IO-cells will be frozen in the same way as they are
 140:.\Generated_Source\PSoC4/cyPm.c ****     *  in the Active to Deep Sleep transition, but will lose their state on wake up
 141:.\Generated_Source\PSoC4/cyPm.c ****     *  (because of the reset occurring at that time).
 142:.\Generated_Source\PSoC4/cyPm.c ****     *
 143:.\Generated_Source\PSoC4/cyPm.c ****     *  Because all the CPU state is lost, the CPU will start up at the reset vector.
 144:.\Generated_Source\PSoC4/cyPm.c ****     *  To save the firmware state through the Hibernate low power mode, a
 145:.\Generated_Source\PSoC4/cyPm.c ****     *  corresponding variable should be defined with CY_NOINIT attribute. It
 146:.\Generated_Source\PSoC4/cyPm.c ****     *  prevents data from being initialized to zero on startup. The interrupt
 147:.\Generated_Source\PSoC4/cyPm.c ****     *  cause of the hibernate peripheral is retained, such that it can be either
 148:.\Generated_Source\PSoC4/cyPm.c ****     *  read by the firmware or cause an interrupt after the firmware has booted and
 149:.\Generated_Source\PSoC4/cyPm.c ****     *  enabled the corresponding interrupt. To distinguish the wakeup from
 150:.\Generated_Source\PSoC4/cyPm.c ****     *  the Hibernate mode and the general Reset event, the CySysPmGetResetReason()
 151:.\Generated_Source\PSoC4/cyPm.c ****     *  function could be used.
 152:.\Generated_Source\PSoC4/cyPm.c ****     *
 153:.\Generated_Source\PSoC4/cyPm.c ****     * Parameters:
 154:.\Generated_Source\PSoC4/cyPm.c ****     *  None
 155:.\Generated_Source\PSoC4/cyPm.c ****     *
 156:.\Generated_Source\PSoC4/cyPm.c ****     * Return:
 157:.\Generated_Source\PSoC4/cyPm.c ****     *  None
 158:.\Generated_Source\PSoC4/cyPm.c ****     *
 159:.\Generated_Source\PSoC4/cyPm.c ****     *******************************************************************************/
 160:.\Generated_Source\PSoC4/cyPm.c ****     void CySysPmHibernate(void)
 161:.\Generated_Source\PSoC4/cyPm.c ****     {
 641              		.loc 1 161 0
 642              		.cfi_startproc
 643 0000 08B5     		push	{r3, lr}
 644              		.cfi_def_cfa_offset 8
 645              		.cfi_offset 3, -8
 646              		.cfi_offset 14, -4
 162:.\Generated_Source\PSoC4/cyPm.c ****         uint8 interruptState;
 163:.\Generated_Source\PSoC4/cyPm.c **** 
 164:.\Generated_Source\PSoC4/cyPm.c ****         interruptState = CyEnterCriticalSection();
 647              		.loc 1 164 0
 648 0002 FFF7FEFF 		bl	CyEnterCriticalSection
 649              	.LVL7:
 650              	.LBB4:
 651              	.LBB5:
 652              		.file 2 ".\\Generated_Source\\PSoC4\\cyPm.h"
   1:.\Generated_Source\PSoC4/cyPm.h **** /*******************************************************************************
   2:.\Generated_Source\PSoC4/cyPm.h **** * File Name: cyPm.h
   3:.\Generated_Source\PSoC4/cyPm.h **** * Version 5.30
   4:.\Generated_Source\PSoC4/cyPm.h **** *
   5:.\Generated_Source\PSoC4/cyPm.h **** *  Description:
   6:.\Generated_Source\PSoC4/cyPm.h **** *   Provides the function definitions for the power management API.
   7:.\Generated_Source\PSoC4/cyPm.h **** *
ARM GAS  C:\Users\zozo\AppData\Local\Temp\ccy30qtq.s 			page 45


   8:.\Generated_Source\PSoC4/cyPm.h **** *  Note:
   9:.\Generated_Source\PSoC4/cyPm.h **** *   Documentation of the API's in this file is located in the
  10:.\Generated_Source\PSoC4/cyPm.h **** *   System Reference Guide provided with PSoC Creator.
  11:.\Generated_Source\PSoC4/cyPm.h **** *
  12:.\Generated_Source\PSoC4/cyPm.h **** ********************************************************************************
  13:.\Generated_Source\PSoC4/cyPm.h **** * Copyright 2011-2015, Cypress Semiconductor Corporation.  All rights reserved.
  14:.\Generated_Source\PSoC4/cyPm.h **** * You may use this file only in accordance with the license, terms, conditions,
  15:.\Generated_Source\PSoC4/cyPm.h **** * disclaimers, and limitations in the end user license agreement accompanying
  16:.\Generated_Source\PSoC4/cyPm.h **** * the software package with which this file was provided.
  17:.\Generated_Source\PSoC4/cyPm.h **** *******************************************************************************/
  18:.\Generated_Source\PSoC4/cyPm.h **** 
  19:.\Generated_Source\PSoC4/cyPm.h **** #if !defined(CY_BOOT_CYPM_H)
  20:.\Generated_Source\PSoC4/cyPm.h **** #define CY_BOOT_CYPM_H
  21:.\Generated_Source\PSoC4/cyPm.h **** 
  22:.\Generated_Source\PSoC4/cyPm.h **** #include "cytypes.h"
  23:.\Generated_Source\PSoC4/cyPm.h **** #include "cypins.h"
  24:.\Generated_Source\PSoC4/cyPm.h **** 
  25:.\Generated_Source\PSoC4/cyPm.h **** 
  26:.\Generated_Source\PSoC4/cyPm.h **** /***************************************
  27:.\Generated_Source\PSoC4/cyPm.h **** *        Function Prototypes
  28:.\Generated_Source\PSoC4/cyPm.h **** ***************************************/
  29:.\Generated_Source\PSoC4/cyPm.h **** void CySysPmSleep(void);
  30:.\Generated_Source\PSoC4/cyPm.h **** void CySysPmDeepSleep(void);
  31:.\Generated_Source\PSoC4/cyPm.h **** 
  32:.\Generated_Source\PSoC4/cyPm.h **** #if(CY_IP_SRSSV2)
  33:.\Generated_Source\PSoC4/cyPm.h ****     void CySysPmHibernate(void);
  34:.\Generated_Source\PSoC4/cyPm.h ****     void CySysPmFreezeIo(void);
  35:.\Generated_Source\PSoC4/cyPm.h ****     void CySysPmUnfreezeIo(void);
  36:.\Generated_Source\PSoC4/cyPm.h ****     uint32 CySysPmGetResetReason(void);
  37:.\Generated_Source\PSoC4/cyPm.h ****     void CySysPmStop(void);
  38:.\Generated_Source\PSoC4/cyPm.h ****     void CySysPmSetWakeupPolarity(uint32 polarity);
  39:.\Generated_Source\PSoC4/cyPm.h **** #else
  40:.\Generated_Source\PSoC4/cyPm.h ****     void CySysPmSetWakeupHoldoff(uint32 hfclkFrequencyMhz);
  41:.\Generated_Source\PSoC4/cyPm.h **** #endif /* (CY_IP_SRSSV2) */
  42:.\Generated_Source\PSoC4/cyPm.h **** 
  43:.\Generated_Source\PSoC4/cyPm.h **** 
  44:.\Generated_Source\PSoC4/cyPm.h **** /***************************************
  45:.\Generated_Source\PSoC4/cyPm.h **** *       Macro definition
  46:.\Generated_Source\PSoC4/cyPm.h **** ***************************************/
  47:.\Generated_Source\PSoC4/cyPm.h **** 
  48:.\Generated_Source\PSoC4/cyPm.h **** /*******************************************************************************
  49:.\Generated_Source\PSoC4/cyPm.h **** * The ARM compilers have the __wfi() intrinsic that inserts a WFI instruction
  50:.\Generated_Source\PSoC4/cyPm.h **** * into the instruction stream generated by the compiler. The GCC compiler has to
  51:.\Generated_Source\PSoC4/cyPm.h **** * execute assembly language instruction.
  52:.\Generated_Source\PSoC4/cyPm.h **** *******************************************************************************/
  53:.\Generated_Source\PSoC4/cyPm.h **** #if defined(__ARMCC_VERSION)    /* Instristic for Keil compilers */
  54:.\Generated_Source\PSoC4/cyPm.h ****     #define CY_PM_WFI       __wfi()
  55:.\Generated_Source\PSoC4/cyPm.h **** #else   /* ASM for GCC & IAR */
  56:.\Generated_Source\PSoC4/cyPm.h ****     #define CY_PM_WFI       __asm volatile ("WFI \n")
  57:.\Generated_Source\PSoC4/cyPm.h **** #endif /* __ARMCC_VERSION */
  58:.\Generated_Source\PSoC4/cyPm.h **** 
  59:.\Generated_Source\PSoC4/cyPm.h **** #if(CY_IP_SRSSV2)
  60:.\Generated_Source\PSoC4/cyPm.h **** 
  61:.\Generated_Source\PSoC4/cyPm.h ****     /* CySysPmSetWakeupPolarity() */
  62:.\Generated_Source\PSoC4/cyPm.h ****     #define CY_PM_STOP_WAKEUP_ACTIVE_LOW        ((uint32)(0x0u))
  63:.\Generated_Source\PSoC4/cyPm.h ****     #define CY_PM_STOP_WAKEUP_ACTIVE_HIGH       ((uint32)(0x1u))
  64:.\Generated_Source\PSoC4/cyPm.h ****     #define CY_PM_STOP_WAKEUP_POLARITY          (CY_PM_STOP_WAKEUP_ACTIVE_LOW)
ARM GAS  C:\Users\zozo\AppData\Local\Temp\ccy30qtq.s 			page 46


  65:.\Generated_Source\PSoC4/cyPm.h **** 
  66:.\Generated_Source\PSoC4/cyPm.h ****     /* CySysPmGetResetReason() */
  67:.\Generated_Source\PSoC4/cyPm.h ****     #define CY_PM_RESET_REASON_UNKN             (0u)
  68:.\Generated_Source\PSoC4/cyPm.h ****     #define CY_PM_RESET_REASON_XRES             (1u)
  69:.\Generated_Source\PSoC4/cyPm.h ****     #define CY_PM_RESET_REASON_WAKEUP_HIB       (2u)
  70:.\Generated_Source\PSoC4/cyPm.h ****     #define CY_PM_RESET_REASON_WAKEUP_STOP      (3u)
  71:.\Generated_Source\PSoC4/cyPm.h **** 
  72:.\Generated_Source\PSoC4/cyPm.h **** #endif /* (CY_IP_SRSSV2) */
  73:.\Generated_Source\PSoC4/cyPm.h **** 
  74:.\Generated_Source\PSoC4/cyPm.h **** 
  75:.\Generated_Source\PSoC4/cyPm.h **** /***************************************
  76:.\Generated_Source\PSoC4/cyPm.h **** *              Registers
  77:.\Generated_Source\PSoC4/cyPm.h **** ***************************************/
  78:.\Generated_Source\PSoC4/cyPm.h **** 
  79:.\Generated_Source\PSoC4/cyPm.h **** /* Power Mode Control */
  80:.\Generated_Source\PSoC4/cyPm.h **** #define CY_PM_PWR_CONTROL_REG               (*(reg32 *) CYREG_PWR_CONTROL)
  81:.\Generated_Source\PSoC4/cyPm.h **** #define CY_PM_PWR_CONTROL_PTR               ( (reg32 *) CYREG_PWR_CONTROL)
  82:.\Generated_Source\PSoC4/cyPm.h **** 
  83:.\Generated_Source\PSoC4/cyPm.h **** /* CM0 System Control Register */
  84:.\Generated_Source\PSoC4/cyPm.h **** #define CY_PM_CM0_SCR_REG                   (*(reg32 *) CYREG_CM0_SCR)
  85:.\Generated_Source\PSoC4/cyPm.h **** #define CY_PM_CM0_SCR_PTR                   ( (reg32 *) CYREG_CM0_SCR)
  86:.\Generated_Source\PSoC4/cyPm.h **** 
  87:.\Generated_Source\PSoC4/cyPm.h **** /* Power System Key & Delay Register */
  88:.\Generated_Source\PSoC4/cyPm.h **** #define CY_PM_PWR_KEY_DELAY_REG             (*(reg32 *) CYREG_PWR_KEY_DELAY)
  89:.\Generated_Source\PSoC4/cyPm.h **** #define CY_PM_PWR_KEY_DELAY_PTR             ( (reg32 *) CYREG_PWR_KEY_DELAY)
  90:.\Generated_Source\PSoC4/cyPm.h **** 
  91:.\Generated_Source\PSoC4/cyPm.h **** 
  92:.\Generated_Source\PSoC4/cyPm.h **** #if(CY_IP_SRSSV2)
  93:.\Generated_Source\PSoC4/cyPm.h ****     /* Hibernate wakeup value for PWR_KEY_DELAY */
  94:.\Generated_Source\PSoC4/cyPm.h ****     #define CY_SFLASH_HIB_KEY_DELAY_REG     (*(reg16 *) CYREG_SFLASH_HIB_KEY_DELAY)
  95:.\Generated_Source\PSoC4/cyPm.h ****     #define CY_SFLASH_HIB_KEY_DELAY_PTR     ( (reg16 *) CYREG_SFLASH_HIB_KEY_DELAY)
  96:.\Generated_Source\PSoC4/cyPm.h **** #endif  /* (CY_IP_SRSSV2) */
  97:.\Generated_Source\PSoC4/cyPm.h **** 
  98:.\Generated_Source\PSoC4/cyPm.h **** /* Deep Sleep wakeup value for PWR_KEY_DELAY */
  99:.\Generated_Source\PSoC4/cyPm.h **** #define CY_SFLASH_DPSLP_KEY_DELAY_REG       (*(reg16 *) CYREG_SFLASH_DPSLP_KEY_DELAY)
 100:.\Generated_Source\PSoC4/cyPm.h **** #define CY_SFLASH_DPSLP_KEY_DELAY_PTR       ( (reg16 *) CYREG_SFLASH_DPSLP_KEY_DELAY)
 101:.\Generated_Source\PSoC4/cyPm.h **** 
 102:.\Generated_Source\PSoC4/cyPm.h **** /* Power Stop Mode Register */
 103:.\Generated_Source\PSoC4/cyPm.h **** #if(CY_IP_SRSSV2)
 104:.\Generated_Source\PSoC4/cyPm.h ****     #define CY_PM_PWR_STOP_REG              (*(reg32 *) CYREG_PWR_STOP)
 105:.\Generated_Source\PSoC4/cyPm.h ****     #define CY_PM_PWR_STOP_PTR              ( (reg32 *) CYREG_PWR_STOP)
 106:.\Generated_Source\PSoC4/cyPm.h **** #endif /* (CY_IP_SRSSV2) */
 107:.\Generated_Source\PSoC4/cyPm.h **** 
 108:.\Generated_Source\PSoC4/cyPm.h **** #if (CY_IP_CPUSS && CY_IP_SRSSV2)
 109:.\Generated_Source\PSoC4/cyPm.h ****     /* CPU Subsystem Configuration */
 110:.\Generated_Source\PSoC4/cyPm.h ****     #define CY_PM_CPUSS_CONFIG_REG             (*(reg32 *) CYREG_CPUSS_CONFIG)
 111:.\Generated_Source\PSoC4/cyPm.h ****     #define CY_PM_CPUSS_CONFIG_PTR             ( (reg32 *) CYREG_CPUSS_CONFIG)
 112:.\Generated_Source\PSoC4/cyPm.h **** #endif /* (CY_IP_CPUSS && CY_IP_SRSSV2) */
 113:.\Generated_Source\PSoC4/cyPm.h **** 
 114:.\Generated_Source\PSoC4/cyPm.h **** 
 115:.\Generated_Source\PSoC4/cyPm.h **** /***************************************
 116:.\Generated_Source\PSoC4/cyPm.h **** *       Register Constants
 117:.\Generated_Source\PSoC4/cyPm.h **** ***************************************/
 118:.\Generated_Source\PSoC4/cyPm.h **** 
 119:.\Generated_Source\PSoC4/cyPm.h **** /* CM0 System Control Register Constants */
 120:.\Generated_Source\PSoC4/cyPm.h **** #define CY_PM_CM0_SCR_SLEEPDEEP             ((uint32)(0x04u))
 121:.\Generated_Source\PSoC4/cyPm.h **** 
ARM GAS  C:\Users\zozo\AppData\Local\Temp\ccy30qtq.s 			page 47


 122:.\Generated_Source\PSoC4/cyPm.h **** #if(CY_IP_SRSSV2)
 123:.\Generated_Source\PSoC4/cyPm.h ****     /* Power Mode Control Constants */
 124:.\Generated_Source\PSoC4/cyPm.h ****     #define CY_PM_PWR_CONTROL_HIBERNATE         (0x80000000u)
 125:.\Generated_Source\PSoC4/cyPm.h **** 
 126:.\Generated_Source\PSoC4/cyPm.h ****     /* Power Mode Stop Constants */
 127:.\Generated_Source\PSoC4/cyPm.h ****     #define CY_PM_PWR_STOP_POLARITY_SHIFT       (16u)
 128:.\Generated_Source\PSoC4/cyPm.h ****     #define CY_PM_PWR_STOP_POLARITY             ((uint32)((uint32)1u << CY_PM_PWR_STOP_POLARITY_SHI
 129:.\Generated_Source\PSoC4/cyPm.h ****     #define CY_PM_PWR_STOP_FREEZE_SHIFT         (17u)
 130:.\Generated_Source\PSoC4/cyPm.h ****     #define CY_PM_PWR_STOP_FREEZE               ((uint32)((uint32)1u << CY_PM_PWR_STOP_FREEZE_SHIFT
 131:.\Generated_Source\PSoC4/cyPm.h ****     #define CY_PM_PWR_STOP_UNLOCK_SHIFT         (8u)
 132:.\Generated_Source\PSoC4/cyPm.h ****     #define CY_PM_PWR_STOP_UNLOCK_MASK          ((uint32)((uint32)0xFFu << CY_PM_PWR_STOP_UNLOCK_SH
 133:.\Generated_Source\PSoC4/cyPm.h ****     #define CY_PM_PWR_STOP_UNLOCK               ((uint32)((uint32)0x3Au << CY_PM_PWR_STOP_UNLOCK_SH
 134:.\Generated_Source\PSoC4/cyPm.h ****     #define CY_PM_PWR_STOP_STOP_SHIFT           (31u)
 135:.\Generated_Source\PSoC4/cyPm.h ****     #define CY_PM_PWR_STOP_STOP                 ((uint32)((uint32)1u << CY_PM_PWR_STOP_STOP_SHIFT))
 136:.\Generated_Source\PSoC4/cyPm.h ****     #define CY_PM_PWR_STOP_TOKEN_MASK           ((uint32)(0xFFu))
 137:.\Generated_Source\PSoC4/cyPm.h ****     #define CY_PM_PWR_STOP_TOKEN_XRES           ((uint32)(0x00u))
 138:.\Generated_Source\PSoC4/cyPm.h ****     #define CY_PM_PWR_STOP_TOKEN_HIB            ((uint32)(0xF1u))
 139:.\Generated_Source\PSoC4/cyPm.h ****     #define CY_PM_PWR_STOP_TOKEN_STOP           ((uint32)(0xF2u))
 140:.\Generated_Source\PSoC4/cyPm.h **** #else
 141:.\Generated_Source\PSoC4/cyPm.h ****     #define CY_PM_PWR_KEY_DELAY_REG_DEFAULT     ((uint32) 248u)
 142:.\Generated_Source\PSoC4/cyPm.h ****     #define CY_PM_PWR_KEY_DELAY_FREQ_DEFAULT    (48u)
 143:.\Generated_Source\PSoC4/cyPm.h **** #endif /* (CY_IP_SRSSV2) */
 144:.\Generated_Source\PSoC4/cyPm.h **** 
 145:.\Generated_Source\PSoC4/cyPm.h **** #if (CY_IP_CPUSS && CY_IP_SRSSV2)
 146:.\Generated_Source\PSoC4/cyPm.h ****     /* 0 - normal operation, 1 - Flash Accelerator in bypass mode */
 147:.\Generated_Source\PSoC4/cyPm.h ****     #define CY_PM_CPUSS_CONFIG_FLSH_ACC_BYPASS      ((uint32) 0x02u)
 148:.\Generated_Source\PSoC4/cyPm.h **** #endif /* (CY_IP_CPUSS && CY_IP_SRSSV2) */
 149:.\Generated_Source\PSoC4/cyPm.h **** 
 150:.\Generated_Source\PSoC4/cyPm.h **** 
 151:.\Generated_Source\PSoC4/cyPm.h **** #if (CY_IP_SRSSV2)
 152:.\Generated_Source\PSoC4/cyPm.h ****     #if (CY_IP_HOBTO_DEVICE)
 153:.\Generated_Source\PSoC4/cyPm.h ****         /*******************************************************************************
 154:.\Generated_Source\PSoC4/cyPm.h ****         * Function Name: CySysPmHibPinsDisableInputBuf
 155:.\Generated_Source\PSoC4/cyPm.h ****         ********************************************************************************
 156:.\Generated_Source\PSoC4/cyPm.h ****         *
 157:.\Generated_Source\PSoC4/cyPm.h ****         * Summary:
 158:.\Generated_Source\PSoC4/cyPm.h ****         *  Disable the input buffer for all the port. This is required before Hibernate
 159:.\Generated_Source\PSoC4/cyPm.h ****         *  mode entry as the operation of the input buffer is not guaranteed if VCCD
 160:.\Generated_Source\PSoC4/cyPm.h ****         *  drops down to 1.0 V.
 161:.\Generated_Source\PSoC4/cyPm.h ****         *
 162:.\Generated_Source\PSoC4/cyPm.h ****         * Parameters:
 163:.\Generated_Source\PSoC4/cyPm.h ****         *  None
 164:.\Generated_Source\PSoC4/cyPm.h ****         *
 165:.\Generated_Source\PSoC4/cyPm.h ****         * Return:
 166:.\Generated_Source\PSoC4/cyPm.h ****         *  None
 167:.\Generated_Source\PSoC4/cyPm.h ****         *
 168:.\Generated_Source\PSoC4/cyPm.h ****         *******************************************************************************/
 169:.\Generated_Source\PSoC4/cyPm.h ****         static CY_INLINE void CySysPmHibPinsDisableInputBuf(void)
 170:.\Generated_Source\PSoC4/cyPm.h ****         {
 171:.\Generated_Source\PSoC4/cyPm.h ****             #ifdef CYREG_GPIO_PRT0_PC
 172:.\Generated_Source\PSoC4/cyPm.h ****                 CY_CLEAR_REG32_FIELD(CYREG_GPIO_PRT0_PC, CYFLD_GPIO_PRT_PORT_IB_MODE_SEL);
 653              		.loc 2 172 0
 654 0006 1F4A     		ldr	r2, .L8
 655              	.LBE5:
 656              	.LBE4:
 165:.\Generated_Source\PSoC4/cyPm.c **** 
 166:.\Generated_Source\PSoC4/cyPm.c ****         #if (CY_IP_HOBTO_DEVICE)
ARM GAS  C:\Users\zozo\AppData\Local\Temp\ccy30qtq.s 			page 48


 167:.\Generated_Source\PSoC4/cyPm.c ****             /* Disable input buffers for all ports */
 168:.\Generated_Source\PSoC4/cyPm.c ****             CySysPmHibPinsDisableInputBuf();
 169:.\Generated_Source\PSoC4/cyPm.c ****         #endif /* (CY_IP_HOBTO_DEVICE) */
 170:.\Generated_Source\PSoC4/cyPm.c **** 
 171:.\Generated_Source\PSoC4/cyPm.c ****         /* Device enters Hibernate mode when CPU asserts SLEEPDEEP signal */
 172:.\Generated_Source\PSoC4/cyPm.c ****         CY_PM_PWR_CONTROL_REG |= CY_PM_PWR_CONTROL_HIBERNATE;
 657              		.loc 1 172 0
 658 0008 8021     		mov	r1, #128
 659              	.LBB8:
 660              	.LBB6:
 661              		.loc 2 172 0
 662 000a 1368     		ldr	r3, [r2]
 663              	.LBE6:
 664              	.LBE8:
 665              		.loc 1 172 0
 666 000c 0906     		lsl	r1, r1, #24
 667              	.LBB9:
 668              	.LBB7:
 669              		.loc 2 172 0
 670 000e 9B00     		lsl	r3, r3, #2
 671 0010 9B08     		lsr	r3, r3, #2
 672 0012 1360     		str	r3, [r2]
 173:.\Generated_Source\PSoC4/cyPm.h ****             #endif /* CYREG_GPIO_PRT0_PC */
 174:.\Generated_Source\PSoC4/cyPm.h **** 
 175:.\Generated_Source\PSoC4/cyPm.h ****             #ifdef CYREG_GPIO_PRT1_PC
 176:.\Generated_Source\PSoC4/cyPm.h ****                 CY_CLEAR_REG32_FIELD( CYREG_GPIO_PRT1_PC, CYFLD_GPIO_PRT_PORT_IB_MODE_SEL);
 673              		.loc 2 176 0
 674 0014 1C4A     		ldr	r2, .L8+4
 675 0016 1368     		ldr	r3, [r2]
 676 0018 9B00     		lsl	r3, r3, #2
 677 001a 9B08     		lsr	r3, r3, #2
 678 001c 1360     		str	r3, [r2]
 177:.\Generated_Source\PSoC4/cyPm.h ****             #endif /* CYREG_GPIO_PRT1_PC */
 178:.\Generated_Source\PSoC4/cyPm.h **** 
 179:.\Generated_Source\PSoC4/cyPm.h ****             #ifdef CYREG_GPIO_PRT2_PC
 180:.\Generated_Source\PSoC4/cyPm.h ****                 CY_CLEAR_REG32_FIELD( CYREG_GPIO_PRT2_PC, CYFLD_GPIO_PRT_PORT_IB_MODE_SEL);
 679              		.loc 2 180 0
 680 001e 1B4A     		ldr	r2, .L8+8
 681 0020 1368     		ldr	r3, [r2]
 682 0022 9B00     		lsl	r3, r3, #2
 683 0024 9B08     		lsr	r3, r3, #2
 684 0026 1360     		str	r3, [r2]
 181:.\Generated_Source\PSoC4/cyPm.h ****             #endif /* CYREG_GPIO_PRT2_PC */
 182:.\Generated_Source\PSoC4/cyPm.h **** 
 183:.\Generated_Source\PSoC4/cyPm.h ****             #ifdef CYREG_GPIO_PRT3_PC
 184:.\Generated_Source\PSoC4/cyPm.h ****                 CY_CLEAR_REG32_FIELD( CYREG_GPIO_PRT3_PC, CYFLD_GPIO_PRT_PORT_IB_MODE_SEL);
 685              		.loc 2 184 0
 686 0028 194A     		ldr	r2, .L8+12
 687 002a 1368     		ldr	r3, [r2]
 688 002c 9B00     		lsl	r3, r3, #2
 689 002e 9B08     		lsr	r3, r3, #2
 690 0030 1360     		str	r3, [r2]
 185:.\Generated_Source\PSoC4/cyPm.h ****             #endif /* CYREG_GPIO_PRT3_PC */
 186:.\Generated_Source\PSoC4/cyPm.h **** 
 187:.\Generated_Source\PSoC4/cyPm.h ****             #ifdef CYREG_GPIO_PRT4_PC
 188:.\Generated_Source\PSoC4/cyPm.h ****                 CY_CLEAR_REG32_FIELD( CYREG_GPIO_PRT4_PC, CYFLD_GPIO_PRT_PORT_IB_MODE_SEL);
 691              		.loc 2 188 0
ARM GAS  C:\Users\zozo\AppData\Local\Temp\ccy30qtq.s 			page 49


 692 0032 184A     		ldr	r2, .L8+16
 693 0034 1368     		ldr	r3, [r2]
 694 0036 9B00     		lsl	r3, r3, #2
 695 0038 9B08     		lsr	r3, r3, #2
 696 003a 1360     		str	r3, [r2]
 189:.\Generated_Source\PSoC4/cyPm.h ****             #endif /* CYREG_GPIO_PRT4_PC */
 190:.\Generated_Source\PSoC4/cyPm.h **** 
 191:.\Generated_Source\PSoC4/cyPm.h ****             #ifdef CYREG_GPIO_PRT5_PC
 192:.\Generated_Source\PSoC4/cyPm.h ****                 CY_CLEAR_REG32_FIELD( CYREG_GPIO_PRT5_PC, CYFLD_GPIO_PRT_PORT_IB_MODE_SEL);
 697              		.loc 2 192 0
 698 003c 164A     		ldr	r2, .L8+20
 699 003e 1368     		ldr	r3, [r2]
 700 0040 9B00     		lsl	r3, r3, #2
 701 0042 9B08     		lsr	r3, r3, #2
 702 0044 1360     		str	r3, [r2]
 193:.\Generated_Source\PSoC4/cyPm.h ****             #endif /* CYREG_GPIO_PRT5_PC */
 194:.\Generated_Source\PSoC4/cyPm.h **** 
 195:.\Generated_Source\PSoC4/cyPm.h ****             #ifdef CYREG_GPIO_PRT6_PC
 196:.\Generated_Source\PSoC4/cyPm.h ****                 CY_CLEAR_REG32_FIELD( CYREG_GPIO_PRT6_PC, CYFLD_GPIO_PRT_PORT_IB_MODE_SEL);
 703              		.loc 2 196 0
 704 0046 154A     		ldr	r2, .L8+24
 705 0048 1368     		ldr	r3, [r2]
 706 004a 9B00     		lsl	r3, r3, #2
 707 004c 9B08     		lsr	r3, r3, #2
 708 004e 1360     		str	r3, [r2]
 709              	.LBE7:
 710              	.LBE9:
 711              		.loc 1 172 0
 712 0050 134A     		ldr	r2, .L8+28
 713 0052 1368     		ldr	r3, [r2]
 714 0054 0B43     		orr	r3, r1
 173:.\Generated_Source\PSoC4/cyPm.c **** 
 174:.\Generated_Source\PSoC4/cyPm.c ****         /* Adjust delay to wait for references to settle on wakeup from hibernate */
 175:.\Generated_Source\PSoC4/cyPm.c ****         CY_PM_PWR_KEY_DELAY_REG = CY_SFLASH_HIB_KEY_DELAY_REG;
 176:.\Generated_Source\PSoC4/cyPm.c **** 
 177:.\Generated_Source\PSoC4/cyPm.c ****         /* CM0 enters DeepSleep/Hibernate mode upon execution of WFI */
 178:.\Generated_Source\PSoC4/cyPm.c ****         CY_PM_CM0_SCR_REG |= CY_PM_CM0_SCR_SLEEPDEEP;
 715              		.loc 1 178 0
 716 0056 0421     		mov	r1, #4
 172:.\Generated_Source\PSoC4/cyPm.c **** 
 717              		.loc 1 172 0
 718 0058 1360     		str	r3, [r2]
 175:.\Generated_Source\PSoC4/cyPm.c **** 
 719              		.loc 1 175 0
 720 005a 124B     		ldr	r3, .L8+32
 721 005c 124A     		ldr	r2, .L8+36
 722 005e 1B88     		ldrh	r3, [r3]
 723 0060 9BB2     		uxth	r3, r3
 724 0062 1360     		str	r3, [r2]
 725              		.loc 1 178 0
 726 0064 114A     		ldr	r2, .L8+40
 727 0066 1368     		ldr	r3, [r2]
 728 0068 0B43     		orr	r3, r1
 729 006a 1360     		str	r3, [r2]
 179:.\Generated_Source\PSoC4/cyPm.c **** 
 180:.\Generated_Source\PSoC4/cyPm.c ****         /* Save token that will retain through a STOP/WAKEUP sequence
 181:.\Generated_Source\PSoC4/cyPm.c ****          * thus could be used by CySysPmGetResetReason() to differentiate
ARM GAS  C:\Users\zozo\AppData\Local\Temp\ccy30qtq.s 			page 50


 182:.\Generated_Source\PSoC4/cyPm.c ****          * WAKEUP from a general RESET event.
 183:.\Generated_Source\PSoC4/cyPm.c ****          */
 184:.\Generated_Source\PSoC4/cyPm.c ****         CY_PM_PWR_STOP_REG = (CY_PM_PWR_STOP_REG & (uint32)(~CY_PM_PWR_STOP_TOKEN_MASK)) | CY_PM_PW
 730              		.loc 1 184 0
 731 006c 104A     		ldr	r2, .L8+44
 732 006e FB31     		add	r1, r1, #251
 733 0070 1368     		ldr	r3, [r2]
 734 0072 8B43     		bic	r3, r1
 735 0074 0E39     		sub	r1, r1, #14
 736 0076 0B43     		orr	r3, r1
 737 0078 1360     		str	r3, [r2]
 185:.\Generated_Source\PSoC4/cyPm.c **** 
 186:.\Generated_Source\PSoC4/cyPm.c ****         /* Sleep and wait for interrupt. Wakeup from Hibernate is performed
 187:.\Generated_Source\PSoC4/cyPm.c ****          * through RESET state, causing a normal Boot procedure to occur.
 188:.\Generated_Source\PSoC4/cyPm.c ****          * The WFI instruction doesn't put the core to sleep if its wake condition
 189:.\Generated_Source\PSoC4/cyPm.c ****          * is true when the instruction is executed.
 190:.\Generated_Source\PSoC4/cyPm.c ****          */
 191:.\Generated_Source\PSoC4/cyPm.c ****         CY_PM_WFI;
 738              		.loc 1 191 0
 739              	@ 191 ".\Generated_Source\PSoC4\cyPm.c" 1
 740 007a 30BF     		WFI 
 741              	
 742              	@ 0 "" 2
 192:.\Generated_Source\PSoC4/cyPm.c **** 
 193:.\Generated_Source\PSoC4/cyPm.c ****         CyExitCriticalSection(interruptState);
 743              		.loc 1 193 0
 744              		.code	16
 745 007c FFF7FEFF 		bl	CyExitCriticalSection
 746              	.LVL8:
 194:.\Generated_Source\PSoC4/cyPm.c ****     }
 747              		.loc 1 194 0
 748              		@ sp needed
 749 0080 08BD     		pop	{r3, pc}
 750              	.L9:
 751 0082 C046     		.align	2
 752              	.L8:
 753 0084 08000440 		.word	1074003976
 754 0088 08010440 		.word	1074004232
 755 008c 08020440 		.word	1074004488
 756 0090 08030440 		.word	1074004744
 757 0094 08040440 		.word	1074005000
 758 0098 08050440 		.word	1074005256
 759 009c 08060440 		.word	1074005512
 760 00a0 00000B40 		.word	1074462720
 761 00a4 50F1FF0F 		.word	268431696
 762 00a8 0C000B40 		.word	1074462732
 763 00ac 10ED00E0 		.word	-536810224
 764 00b0 2C000B40 		.word	1074462764
 765              		.cfi_endproc
 766              	.LFE5:
 767              		.size	CySysPmHibernate, .-CySysPmHibernate
 768              		.section	.text.CySysPmSetWakeupPolarity,"ax",%progbits
 769              		.align	1
 770              		.global	CySysPmSetWakeupPolarity
 771              		.code	16
 772              		.thumb_func
 773              		.type	CySysPmSetWakeupPolarity, %function
ARM GAS  C:\Users\zozo\AppData\Local\Temp\ccy30qtq.s 			page 51


 774              	CySysPmSetWakeupPolarity:
 775              	.LFB7:
 195:.\Generated_Source\PSoC4/cyPm.c **** 
 196:.\Generated_Source\PSoC4/cyPm.c **** 
 197:.\Generated_Source\PSoC4/cyPm.c ****     /*******************************************************************************
 198:.\Generated_Source\PSoC4/cyPm.c ****     * Function Name: CySysPmStop
 199:.\Generated_Source\PSoC4/cyPm.c ****     ********************************************************************************
 200:.\Generated_Source\PSoC4/cyPm.c ****     *
 201:.\Generated_Source\PSoC4/cyPm.c ****     * Summary:
 202:.\Generated_Source\PSoC4/cyPm.c ****     *  Puts the part into the Stop state. All internal supplies are off;
 203:.\Generated_Source\PSoC4/cyPm.c ****     *  no state is retained.
 204:.\Generated_Source\PSoC4/cyPm.c ****     *
 205:.\Generated_Source\PSoC4/cyPm.c ****     *  Wakeup from Stop is performed by toggling the wakeup pin, causing
 206:.\Generated_Source\PSoC4/cyPm.c ****     *  a normal boot procedure to occur. To configure the wakeup pin,
 207:.\Generated_Source\PSoC4/cyPm.c ****     *  the Digital Input Pin component should be placed on the schematic,
 208:.\Generated_Source\PSoC4/cyPm.c ****     *  assigned to the wakeup pin, and resistively pulled up or down to the inverse
 209:.\Generated_Source\PSoC4/cyPm.c ****     *  state of the wakeup polarity. To distinguish the wakeup from the Stop mode
 210:.\Generated_Source\PSoC4/cyPm.c ****     *  and the general Reset event, CySysPmGetResetReason() function could be used.
 211:.\Generated_Source\PSoC4/cyPm.c ****     *  The wakeup pin is active low by default. The wakeup pin polarity
 212:.\Generated_Source\PSoC4/cyPm.c ****     *  could be changed with the CySysPmSetWakeupPolarity() function.
 213:.\Generated_Source\PSoC4/cyPm.c ****     *
 214:.\Generated_Source\PSoC4/cyPm.c ****     *  This function freezes IO cells implicitly. It is not possible to enter
 215:.\Generated_Source\PSoC4/cyPm.c ****     *  the STOP mode before freezing the IO cells. The IO cells remain frozen after
 216:.\Generated_Source\PSoC4/cyPm.c ****     *  awake from the Stop mode until the firmware unfreezes them after booting
 217:.\Generated_Source\PSoC4/cyPm.c ****     *  explicitly with CySysPmUnfreezeIo() function call.
 218:.\Generated_Source\PSoC4/cyPm.c ****     *
 219:.\Generated_Source\PSoC4/cyPm.c ****     * Parameters:
 220:.\Generated_Source\PSoC4/cyPm.c ****     *  None
 221:.\Generated_Source\PSoC4/cyPm.c ****     *
 222:.\Generated_Source\PSoC4/cyPm.c ****     * Return:
 223:.\Generated_Source\PSoC4/cyPm.c ****     *  None
 224:.\Generated_Source\PSoC4/cyPm.c ****     *
 225:.\Generated_Source\PSoC4/cyPm.c ****     *******************************************************************************/
 226:.\Generated_Source\PSoC4/cyPm.c ****     void CySysPmStop(void)
 227:.\Generated_Source\PSoC4/cyPm.c ****     {
 228:.\Generated_Source\PSoC4/cyPm.c ****         (void) CyEnterCriticalSection();
 229:.\Generated_Source\PSoC4/cyPm.c **** 
 230:.\Generated_Source\PSoC4/cyPm.c ****         /* Update token to indicate Stop mode transition. Preserve only polarity. */
 231:.\Generated_Source\PSoC4/cyPm.c ****         CY_PM_PWR_STOP_REG = (CY_PM_PWR_STOP_REG & CY_PM_PWR_STOP_POLARITY) | CY_PM_PWR_STOP_TOKEN_
 232:.\Generated_Source\PSoC4/cyPm.c **** 
 233:.\Generated_Source\PSoC4/cyPm.c ****         /* Freeze IO-Cells to save IO-Cell state */
 234:.\Generated_Source\PSoC4/cyPm.c ****         CySysPmFreezeIo();
 235:.\Generated_Source\PSoC4/cyPm.c **** 
 236:.\Generated_Source\PSoC4/cyPm.c ****         /* Initiates transition to Stop state */
 237:.\Generated_Source\PSoC4/cyPm.c ****         CY_PM_PWR_STOP_REG = CY_PM_PWR_STOP_REG | CY_PM_PWR_STOP_STOP;
 238:.\Generated_Source\PSoC4/cyPm.c **** 
 239:.\Generated_Source\PSoC4/cyPm.c ****         /* Depending on the clock frequency and internal timing delays,
 240:.\Generated_Source\PSoC4/cyPm.c ****          * the final AHB transaction may or may not complete. To guard against
 241:.\Generated_Source\PSoC4/cyPm.c ****          * accidentally executing an unintended instruction, it is recommended
 242:.\Generated_Source\PSoC4/cyPm.c ****          * to add 2 NOP cycles after the final write to the STOP register.
 243:.\Generated_Source\PSoC4/cyPm.c ****          */
 244:.\Generated_Source\PSoC4/cyPm.c ****         CY_NOP;
 245:.\Generated_Source\PSoC4/cyPm.c ****         CY_NOP;
 246:.\Generated_Source\PSoC4/cyPm.c **** 
 247:.\Generated_Source\PSoC4/cyPm.c ****         /* Should never get to this WFI instruction */
 248:.\Generated_Source\PSoC4/cyPm.c ****         CY_PM_WFI;
 249:.\Generated_Source\PSoC4/cyPm.c **** 
ARM GAS  C:\Users\zozo\AppData\Local\Temp\ccy30qtq.s 			page 52


 250:.\Generated_Source\PSoC4/cyPm.c ****         /* Wakeup from Stop is performed by toggling of Wakeup pin,
 251:.\Generated_Source\PSoC4/cyPm.c ****          * causing a normal Boot procedure to occur. No need to exit
 252:.\Generated_Source\PSoC4/cyPm.c ****          * from the critical section.
 253:.\Generated_Source\PSoC4/cyPm.c ****          */
 254:.\Generated_Source\PSoC4/cyPm.c ****     }
 255:.\Generated_Source\PSoC4/cyPm.c **** 
 256:.\Generated_Source\PSoC4/cyPm.c **** 
 257:.\Generated_Source\PSoC4/cyPm.c ****     /*******************************************************************************
 258:.\Generated_Source\PSoC4/cyPm.c ****     * Function Name: CySysPmSetWakeupPolarity
 259:.\Generated_Source\PSoC4/cyPm.c ****     ********************************************************************************
 260:.\Generated_Source\PSoC4/cyPm.c ****     *
 261:.\Generated_Source\PSoC4/cyPm.c ****     * Summary:
 262:.\Generated_Source\PSoC4/cyPm.c ****     *  Wake up from the stop mode is performed by toggling the wakeup pin,
 263:.\Generated_Source\PSoC4/cyPm.c ****     *  causing a normal boot procedure to occur. This function assigns
 264:.\Generated_Source\PSoC4/cyPm.c ****     *  the wakeup pin active level. Setting the wakeup pin to this level will cause
 265:.\Generated_Source\PSoC4/cyPm.c ****     *  the wakeup from stop mode. The wakeup pin is active low by default.
 266:.\Generated_Source\PSoC4/cyPm.c ****     *
 267:.\Generated_Source\PSoC4/cyPm.c ****     * Parameters:
 268:.\Generated_Source\PSoC4/cyPm.c ****     *  polarity: Wakeup pin active level:
 269:.\Generated_Source\PSoC4/cyPm.c ****     *   Value    Define                          Level
 270:.\Generated_Source\PSoC4/cyPm.c ****     *    0        CY_PM_STOP_WAKEUP_ACTIVE_LOW    Logical zero will wakeup the chip
 271:.\Generated_Source\PSoC4/cyPm.c ****     *    1        CY_PM_STOP_WAKEUP_ACTIVE_HIGH   Logical one will wakeup the chip
 272:.\Generated_Source\PSoC4/cyPm.c ****     *
 273:.\Generated_Source\PSoC4/cyPm.c ****     * Return:
 274:.\Generated_Source\PSoC4/cyPm.c ****     *  None
 275:.\Generated_Source\PSoC4/cyPm.c ****     *
 276:.\Generated_Source\PSoC4/cyPm.c ****     *******************************************************************************/
 277:.\Generated_Source\PSoC4/cyPm.c ****     void CySysPmSetWakeupPolarity(uint32 polarity)
 278:.\Generated_Source\PSoC4/cyPm.c ****     {
 776              		.loc 1 278 0
 777              		.cfi_startproc
 778              	.LVL9:
 779 0000 10B5     		push	{r4, lr}
 780              		.cfi_def_cfa_offset 8
 781              		.cfi_offset 4, -8
 782              		.cfi_offset 14, -4
 783              		.loc 1 278 0
 784 0002 041C     		mov	r4, r0
 279:.\Generated_Source\PSoC4/cyPm.c ****         uint8 interruptState;
 280:.\Generated_Source\PSoC4/cyPm.c **** 
 281:.\Generated_Source\PSoC4/cyPm.c ****         interruptState = CyEnterCriticalSection();
 785              		.loc 1 281 0
 786 0004 FFF7FEFF 		bl	CyEnterCriticalSection
 787              	.LVL10:
 788 0008 074A     		ldr	r2, .L14
 282:.\Generated_Source\PSoC4/cyPm.c **** 
 283:.\Generated_Source\PSoC4/cyPm.c ****         CY_PM_PWR_STOP_REG = (CY_PM_STOP_WAKEUP_ACTIVE_LOW != polarity) ?
 284:.\Generated_Source\PSoC4/cyPm.c ****                             (CY_PM_PWR_STOP_REG | CY_PM_PWR_STOP_POLARITY) :
 789              		.loc 1 284 0
 790 000a 002C     		cmp	r4, #0
 791 000c 04D0     		beq	.L11
 792              		.loc 1 284 0 is_stmt 0 discriminator 1
 793 000e 8021     		mov	r1, #128
 794 0010 1368     		ldr	r3, [r2]
 795 0012 4902     		lsl	r1, r1, #9
 796 0014 0B43     		orr	r3, r1
 797 0016 02E0     		b	.L12
ARM GAS  C:\Users\zozo\AppData\Local\Temp\ccy30qtq.s 			page 53


 798              	.L11:
 285:.\Generated_Source\PSoC4/cyPm.c ****                             (CY_PM_PWR_STOP_REG & (uint32) (~CY_PM_PWR_STOP_POLARITY));
 799              		.loc 1 285 0 is_stmt 1 discriminator 2
 800 0018 1168     		ldr	r1, [r2]
 284:.\Generated_Source\PSoC4/cyPm.c ****                             (CY_PM_PWR_STOP_REG & (uint32) (~CY_PM_PWR_STOP_POLARITY));
 801              		.loc 1 284 0 discriminator 2
 802 001a 044B     		ldr	r3, .L14+4
 803 001c 0B40     		and	r3, r1
 804              	.L12:
 283:.\Generated_Source\PSoC4/cyPm.c ****                             (CY_PM_PWR_STOP_REG | CY_PM_PWR_STOP_POLARITY) :
 805              		.loc 1 283 0
 806 001e 1360     		str	r3, [r2]
 286:.\Generated_Source\PSoC4/cyPm.c **** 
 287:.\Generated_Source\PSoC4/cyPm.c ****         CyExitCriticalSection(interruptState);
 807              		.loc 1 287 0
 808 0020 FFF7FEFF 		bl	CyExitCriticalSection
 809              	.LVL11:
 288:.\Generated_Source\PSoC4/cyPm.c ****     }
 810              		.loc 1 288 0
 811              		@ sp needed
 812              	.LVL12:
 813 0024 10BD     		pop	{r4, pc}
 814              	.L15:
 815 0026 C046     		.align	2
 816              	.L14:
 817 0028 2C000B40 		.word	1074462764
 818 002c FFFFFEFF 		.word	-65537
 819              		.cfi_endproc
 820              	.LFE7:
 821              		.size	CySysPmSetWakeupPolarity, .-CySysPmSetWakeupPolarity
 822              		.section	.text.CySysPmGetResetReason,"ax",%progbits
 823              		.align	1
 824              		.global	CySysPmGetResetReason
 825              		.code	16
 826              		.thumb_func
 827              		.type	CySysPmGetResetReason, %function
 828              	CySysPmGetResetReason:
 829              	.LFB8:
 289:.\Generated_Source\PSoC4/cyPm.c **** 
 290:.\Generated_Source\PSoC4/cyPm.c **** 
 291:.\Generated_Source\PSoC4/cyPm.c ****     /*******************************************************************************
 292:.\Generated_Source\PSoC4/cyPm.c ****     * Function Name: CySysPmGetResetReason
 293:.\Generated_Source\PSoC4/cyPm.c ****     ********************************************************************************
 294:.\Generated_Source\PSoC4/cyPm.c ****     *
 295:.\Generated_Source\PSoC4/cyPm.c ****     * Summary:
 296:.\Generated_Source\PSoC4/cyPm.c ****     *  Retrieves the last reset reason - transition from OFF/XRES/STOP/HIBERNATE to
 297:.\Generated_Source\PSoC4/cyPm.c ****     *  the RESET state. Note that waking up from STOP using XRES will be perceived
 298:.\Generated_Source\PSoC4/cyPm.c ****     *  as a general RESET.
 299:.\Generated_Source\PSoC4/cyPm.c ****     *
 300:.\Generated_Source\PSoC4/cyPm.c ****     * Parameters:
 301:.\Generated_Source\PSoC4/cyPm.c ****     *  None
 302:.\Generated_Source\PSoC4/cyPm.c ****     *
 303:.\Generated_Source\PSoC4/cyPm.c ****     * Return:
 304:.\Generated_Source\PSoC4/cyPm.c ****     *  Reset reason.
 305:.\Generated_Source\PSoC4/cyPm.c ****     *  CY_PM_RESET_REASON_UNKN        - unknown
 306:.\Generated_Source\PSoC4/cyPm.c ****     *  CY_PM_RESET_REASON_XRES        - transition from OFF/XRES to RESET
 307:.\Generated_Source\PSoC4/cyPm.c ****     *  CY_PM_RESET_REASON_WAKEUP_HIB  - transition/wakeup from HIBERNATE to RESET
ARM GAS  C:\Users\zozo\AppData\Local\Temp\ccy30qtq.s 			page 54


 308:.\Generated_Source\PSoC4/cyPm.c ****     *  CY_PM_RESET_REASON_WAKEUP_STOP - transition/wakeup from STOP to RESET
 309:.\Generated_Source\PSoC4/cyPm.c ****     *
 310:.\Generated_Source\PSoC4/cyPm.c ****     *******************************************************************************/
 311:.\Generated_Source\PSoC4/cyPm.c ****     uint32 CySysPmGetResetReason(void)
 312:.\Generated_Source\PSoC4/cyPm.c ****     {
 830              		.loc 1 312 0
 831              		.cfi_startproc
 832              	.LVL13:
 313:.\Generated_Source\PSoC4/cyPm.c ****         uint32 reason = CY_PM_RESET_REASON_UNKN;
 314:.\Generated_Source\PSoC4/cyPm.c **** 
 315:.\Generated_Source\PSoC4/cyPm.c ****         switch(CY_PM_PWR_STOP_REG & CY_PM_PWR_STOP_TOKEN_MASK)
 833              		.loc 1 315 0
 834 0000 054B     		ldr	r3, .L22
 316:.\Generated_Source\PSoC4/cyPm.c ****         {
 317:.\Generated_Source\PSoC4/cyPm.c ****         /* Power up, XRES */
 318:.\Generated_Source\PSoC4/cyPm.c ****         case CY_PM_PWR_STOP_TOKEN_XRES:
 319:.\Generated_Source\PSoC4/cyPm.c ****             reason = CY_PM_RESET_REASON_XRES;
 320:.\Generated_Source\PSoC4/cyPm.c ****             break;
 321:.\Generated_Source\PSoC4/cyPm.c **** 
 322:.\Generated_Source\PSoC4/cyPm.c ****         /* Wakeup from Hibernate */
 323:.\Generated_Source\PSoC4/cyPm.c ****         case CY_PM_PWR_STOP_TOKEN_HIB:
 324:.\Generated_Source\PSoC4/cyPm.c ****             reason = CY_PM_RESET_REASON_WAKEUP_HIB;
 835              		.loc 1 324 0
 836 0002 0220     		mov	r0, #2
 315:.\Generated_Source\PSoC4/cyPm.c ****         {
 837              		.loc 1 315 0
 838 0004 1B68     		ldr	r3, [r3]
 839 0006 DBB2     		uxtb	r3, r3
 840 0008 F12B     		cmp	r3, #241
 841 000a 04D0     		beq	.L17
 325:.\Generated_Source\PSoC4/cyPm.c ****             break;
 326:.\Generated_Source\PSoC4/cyPm.c **** 
 327:.\Generated_Source\PSoC4/cyPm.c ****         /* Wakeup from Stop (through WAKEUP pin assert) */
 328:.\Generated_Source\PSoC4/cyPm.c ****         case CY_PM_PWR_STOP_TOKEN_STOP:
 329:.\Generated_Source\PSoC4/cyPm.c ****             reason = CY_PM_RESET_REASON_WAKEUP_STOP;
 842              		.loc 1 329 0
 843 000c 0130     		add	r0, r0, #1
 315:.\Generated_Source\PSoC4/cyPm.c ****         {
 844              		.loc 1 315 0
 845 000e F22B     		cmp	r3, #242
 846 0010 01D0     		beq	.L17
 313:.\Generated_Source\PSoC4/cyPm.c **** 
 847              		.loc 1 313 0
 848 0012 5842     		neg	r0, r3
 849 0014 5841     		adc	r0, r0, r3
 850              	.L17:
 851              	.LVL14:
 330:.\Generated_Source\PSoC4/cyPm.c ****             break;
 331:.\Generated_Source\PSoC4/cyPm.c **** 
 332:.\Generated_Source\PSoC4/cyPm.c ****         /* Unknown reason */
 333:.\Generated_Source\PSoC4/cyPm.c ****         default:
 334:.\Generated_Source\PSoC4/cyPm.c ****             break;
 335:.\Generated_Source\PSoC4/cyPm.c ****         }
 336:.\Generated_Source\PSoC4/cyPm.c **** 
 337:.\Generated_Source\PSoC4/cyPm.c ****         return (reason);
 338:.\Generated_Source\PSoC4/cyPm.c ****     }
 852              		.loc 1 338 0
ARM GAS  C:\Users\zozo\AppData\Local\Temp\ccy30qtq.s 			page 55


 853              		@ sp needed
 854 0016 7047     		bx	lr
 855              	.L23:
 856              		.align	2
 857              	.L22:
 858 0018 2C000B40 		.word	1074462764
 859              		.cfi_endproc
 860              	.LFE8:
 861              		.size	CySysPmGetResetReason, .-CySysPmGetResetReason
 862              		.section	.text.CySysPmFreezeIo,"ax",%progbits
 863              		.align	1
 864              		.global	CySysPmFreezeIo
 865              		.code	16
 866              		.thumb_func
 867              		.type	CySysPmFreezeIo, %function
 868              	CySysPmFreezeIo:
 869              	.LFB9:
 339:.\Generated_Source\PSoC4/cyPm.c **** 
 340:.\Generated_Source\PSoC4/cyPm.c **** 
 341:.\Generated_Source\PSoC4/cyPm.c ****     /*******************************************************************************
 342:.\Generated_Source\PSoC4/cyPm.c ****     * Function Name: CySysPmFreezeIo
 343:.\Generated_Source\PSoC4/cyPm.c ****     ********************************************************************************
 344:.\Generated_Source\PSoC4/cyPm.c ****     *
 345:.\Generated_Source\PSoC4/cyPm.c ****     * Summary:
 346:.\Generated_Source\PSoC4/cyPm.c ****     *  Freezes IO-Cells directly to save the IO-Cell state on wake up from the
 347:.\Generated_Source\PSoC4/cyPm.c ****     *  Hibernate or Stop state. It is not required to call this function before
 348:.\Generated_Source\PSoC4/cyPm.c ****     *  entering the Stop mode, since CySysPmStop() function freezes IO-Cells
 349:.\Generated_Source\PSoC4/cyPm.c ****     *  implicitly.
 350:.\Generated_Source\PSoC4/cyPm.c ****     *
 351:.\Generated_Source\PSoC4/cyPm.c ****     * Parameters:
 352:.\Generated_Source\PSoC4/cyPm.c ****     *  None
 353:.\Generated_Source\PSoC4/cyPm.c ****     *
 354:.\Generated_Source\PSoC4/cyPm.c ****     * Return:
 355:.\Generated_Source\PSoC4/cyPm.c ****     *  None
 356:.\Generated_Source\PSoC4/cyPm.c ****     *
 357:.\Generated_Source\PSoC4/cyPm.c ****     *******************************************************************************/
 358:.\Generated_Source\PSoC4/cyPm.c ****     void CySysPmFreezeIo(void)
 359:.\Generated_Source\PSoC4/cyPm.c ****     {
 870              		.loc 1 359 0
 871              		.cfi_startproc
 872 0000 08B5     		push	{r3, lr}
 873              		.cfi_def_cfa_offset 8
 874              		.cfi_offset 3, -8
 875              		.cfi_offset 14, -4
 360:.\Generated_Source\PSoC4/cyPm.c ****         uint8 interruptState;
 361:.\Generated_Source\PSoC4/cyPm.c **** 
 362:.\Generated_Source\PSoC4/cyPm.c ****         interruptState = CyEnterCriticalSection();
 876              		.loc 1 362 0
 877 0002 FFF7FEFF 		bl	CyEnterCriticalSection
 878              	.LVL15:
 363:.\Generated_Source\PSoC4/cyPm.c **** 
 364:.\Generated_Source\PSoC4/cyPm.c ****         /* Check FREEZE state to avoid recurrent IO-Cells freeze attempt,
 365:.\Generated_Source\PSoC4/cyPm.c ****          * since the second call to this function will cause accidental switch
 366:.\Generated_Source\PSoC4/cyPm.c ****          * to the STOP mode (the system will enter STOP mode immediately after
 367:.\Generated_Source\PSoC4/cyPm.c ****          * writing to STOP bit since both UNLOCK and FREEZE have been set correctly
 368:.\Generated_Source\PSoC4/cyPm.c ****          * in a previous call to this function).
 369:.\Generated_Source\PSoC4/cyPm.c ****          */
ARM GAS  C:\Users\zozo\AppData\Local\Temp\ccy30qtq.s 			page 56


 370:.\Generated_Source\PSoC4/cyPm.c ****         if (0u == (CY_PM_PWR_STOP_REG & CY_PM_PWR_STOP_FREEZE))
 879              		.loc 1 370 0
 880 0006 084B     		ldr	r3, .L26
 881 0008 1A68     		ldr	r2, [r3]
 882 000a 9203     		lsl	r2, r2, #14
 883 000c 09D4     		bmi	.L25
 371:.\Generated_Source\PSoC4/cyPm.c ****         {
 372:.\Generated_Source\PSoC4/cyPm.c ****             /* Preserve last reset reason and disable overrides the next freeze command by peripher
 373:.\Generated_Source\PSoC4/cyPm.c ****             CY_PM_PWR_STOP_REG = CY_PM_PWR_STOP_STOP | CY_PM_PWR_STOP_FREEZE | CY_PM_PWR_STOP_UNLOC
 374:.\Generated_Source\PSoC4/cyPm.c ****                                 (CY_PM_PWR_STOP_REG & (CY_PM_PWR_STOP_TOKEN_MASK | CY_PM_PWR_STOP_P
 884              		.loc 1 374 0
 885 000e 1968     		ldr	r1, [r3]
 886 0010 064A     		ldr	r2, .L26+4
 887 0012 0A40     		and	r2, r1
 373:.\Generated_Source\PSoC4/cyPm.c ****                                 (CY_PM_PWR_STOP_REG & (CY_PM_PWR_STOP_TOKEN_MASK | CY_PM_PWR_STOP_P
 888              		.loc 1 373 0
 889 0014 0649     		ldr	r1, .L26+8
 890 0016 0A43     		orr	r2, r1
 891 0018 1A60     		str	r2, [r3]
 375:.\Generated_Source\PSoC4/cyPm.c **** 
 376:.\Generated_Source\PSoC4/cyPm.c ****             /* If reading after writing, read this register three times to delay
 377:.\Generated_Source\PSoC4/cyPm.c ****             *  enough time for internal settling.
 378:.\Generated_Source\PSoC4/cyPm.c ****             */
 379:.\Generated_Source\PSoC4/cyPm.c ****             (void) CY_PM_PWR_STOP_REG;
 892              		.loc 1 379 0
 893 001a 1A68     		ldr	r2, [r3]
 380:.\Generated_Source\PSoC4/cyPm.c ****             (void) CY_PM_PWR_STOP_REG;
 894              		.loc 1 380 0
 895 001c 1A68     		ldr	r2, [r3]
 381:.\Generated_Source\PSoC4/cyPm.c **** 
 382:.\Generated_Source\PSoC4/cyPm.c ****             /* Second write causes the freeze of IO-Cells to save IO-Cell state */
 383:.\Generated_Source\PSoC4/cyPm.c ****             CY_PM_PWR_STOP_REG = CY_PM_PWR_STOP_REG;
 896              		.loc 1 383 0
 897 001e 1A68     		ldr	r2, [r3]
 898 0020 1A60     		str	r2, [r3]
 899              	.L25:
 384:.\Generated_Source\PSoC4/cyPm.c ****         }
 385:.\Generated_Source\PSoC4/cyPm.c **** 
 386:.\Generated_Source\PSoC4/cyPm.c ****         CyExitCriticalSection(interruptState);
 900              		.loc 1 386 0
 901 0022 FFF7FEFF 		bl	CyExitCriticalSection
 902              	.LVL16:
 387:.\Generated_Source\PSoC4/cyPm.c ****     }
 903              		.loc 1 387 0
 904              		@ sp needed
 905 0026 08BD     		pop	{r3, pc}
 906              	.L27:
 907              		.align	2
 908              	.L26:
 909 0028 2C000B40 		.word	1074462764
 910 002c FF000100 		.word	65791
 911 0030 003A0280 		.word	-2147337728
 912              		.cfi_endproc
 913              	.LFE9:
 914              		.size	CySysPmFreezeIo, .-CySysPmFreezeIo
 915              		.section	.text.CySysPmStop,"ax",%progbits
 916              		.align	1
ARM GAS  C:\Users\zozo\AppData\Local\Temp\ccy30qtq.s 			page 57


 917              		.global	CySysPmStop
 918              		.code	16
 919              		.thumb_func
 920              		.type	CySysPmStop, %function
 921              	CySysPmStop:
 922              	.LFB6:
 227:.\Generated_Source\PSoC4/cyPm.c ****         (void) CyEnterCriticalSection();
 923              		.loc 1 227 0
 924              		.cfi_startproc
 925 0000 10B5     		push	{r4, lr}
 926              		.cfi_def_cfa_offset 8
 927              		.cfi_offset 4, -8
 928              		.cfi_offset 14, -4
 228:.\Generated_Source\PSoC4/cyPm.c **** 
 929              		.loc 1 228 0
 930 0002 FFF7FEFF 		bl	CyEnterCriticalSection
 931              	.LVL17:
 231:.\Generated_Source\PSoC4/cyPm.c **** 
 932              		.loc 1 231 0
 933 0006 8023     		mov	r3, #128
 934 0008 084C     		ldr	r4, .L29
 935 000a 5B02     		lsl	r3, r3, #9
 936 000c 2268     		ldr	r2, [r4]
 937 000e 1340     		and	r3, r2
 938 0010 F222     		mov	r2, #242
 939 0012 1343     		orr	r3, r2
 940 0014 2360     		str	r3, [r4]
 234:.\Generated_Source\PSoC4/cyPm.c **** 
 941              		.loc 1 234 0
 942 0016 FFF7FEFF 		bl	CySysPmFreezeIo
 943              	.LVL18:
 237:.\Generated_Source\PSoC4/cyPm.c **** 
 944              		.loc 1 237 0
 945 001a 8022     		mov	r2, #128
 946 001c 2368     		ldr	r3, [r4]
 947 001e 1206     		lsl	r2, r2, #24
 948 0020 1343     		orr	r3, r2
 949 0022 2360     		str	r3, [r4]
 244:.\Generated_Source\PSoC4/cyPm.c ****         CY_NOP;
 950              		.loc 1 244 0
 951              	@ 244 ".\Generated_Source\PSoC4\cyPm.c" 1
 952 0024 C046     		NOP
 953              	
 954              	@ 0 "" 2
 245:.\Generated_Source\PSoC4/cyPm.c **** 
 955              		.loc 1 245 0
 956              	@ 245 ".\Generated_Source\PSoC4\cyPm.c" 1
 957 0026 C046     		NOP
 958              	
 959              	@ 0 "" 2
 248:.\Generated_Source\PSoC4/cyPm.c **** 
 960              		.loc 1 248 0
 961              	@ 248 ".\Generated_Source\PSoC4\cyPm.c" 1
 962 0028 30BF     		WFI 
 963              	
 964              	@ 0 "" 2
 254:.\Generated_Source\PSoC4/cyPm.c **** 
ARM GAS  C:\Users\zozo\AppData\Local\Temp\ccy30qtq.s 			page 58


 965              		.loc 1 254 0
 966              		.code	16
 967              		@ sp needed
 968 002a 10BD     		pop	{r4, pc}
 969              	.L30:
 970              		.align	2
 971              	.L29:
 972 002c 2C000B40 		.word	1074462764
 973              		.cfi_endproc
 974              	.LFE6:
 975              		.size	CySysPmStop, .-CySysPmStop
 976              		.section	.text.CySysPmUnfreezeIo,"ax",%progbits
 977              		.align	1
 978              		.global	CySysPmUnfreezeIo
 979              		.code	16
 980              		.thumb_func
 981              		.type	CySysPmUnfreezeIo, %function
 982              	CySysPmUnfreezeIo:
 983              	.LFB10:
 388:.\Generated_Source\PSoC4/cyPm.c **** 
 389:.\Generated_Source\PSoC4/cyPm.c **** 
 390:.\Generated_Source\PSoC4/cyPm.c ****     /*******************************************************************************
 391:.\Generated_Source\PSoC4/cyPm.c ****     * Function Name: CySysPmUnfreezeIo
 392:.\Generated_Source\PSoC4/cyPm.c ****     ********************************************************************************
 393:.\Generated_Source\PSoC4/cyPm.c ****     *
 394:.\Generated_Source\PSoC4/cyPm.c ****     * Summary:
 395:.\Generated_Source\PSoC4/cyPm.c ****     *  The IO-Cells remain frozen after awake from Hibernate or Stop mode until
 396:.\Generated_Source\PSoC4/cyPm.c ****     *  the firmware unfreezes them after booting. The call of this function
 397:.\Generated_Source\PSoC4/cyPm.c ****     *  unfreezes IO-Cells explicitly.
 398:.\Generated_Source\PSoC4/cyPm.c ****     *
 399:.\Generated_Source\PSoC4/cyPm.c ****     *  If the firmware intent is to retain the data value on the port, then the
 400:.\Generated_Source\PSoC4/cyPm.c ****     *  value must be read and re-written to the data register before calling this
 401:.\Generated_Source\PSoC4/cyPm.c ****     *  API. Furthermore, the drive mode must be re-programmed.  If this is not done,
 402:.\Generated_Source\PSoC4/cyPm.c ****     *  the pin state will change to default state the moment the freeze is removed.
 403:.\Generated_Source\PSoC4/cyPm.c ****     *
 404:.\Generated_Source\PSoC4/cyPm.c ****     *  This API is not available for PSoC 4000 family of devices.
 405:.\Generated_Source\PSoC4/cyPm.c ****     *
 406:.\Generated_Source\PSoC4/cyPm.c ****     * Parameters:
 407:.\Generated_Source\PSoC4/cyPm.c ****     *  None
 408:.\Generated_Source\PSoC4/cyPm.c ****     *
 409:.\Generated_Source\PSoC4/cyPm.c ****     * Return:
 410:.\Generated_Source\PSoC4/cyPm.c ****     *  None
 411:.\Generated_Source\PSoC4/cyPm.c ****     *
 412:.\Generated_Source\PSoC4/cyPm.c ****     *******************************************************************************/
 413:.\Generated_Source\PSoC4/cyPm.c ****     void CySysPmUnfreezeIo(void)
 414:.\Generated_Source\PSoC4/cyPm.c ****     {
 984              		.loc 1 414 0
 985              		.cfi_startproc
 986 0000 10B5     		push	{r4, lr}
 987              		.cfi_def_cfa_offset 8
 988              		.cfi_offset 4, -8
 989              		.cfi_offset 14, -4
 415:.\Generated_Source\PSoC4/cyPm.c ****         uint8 interruptState;
 416:.\Generated_Source\PSoC4/cyPm.c **** 
 417:.\Generated_Source\PSoC4/cyPm.c ****         interruptState = CyEnterCriticalSection();
 418:.\Generated_Source\PSoC4/cyPm.c **** 
 419:.\Generated_Source\PSoC4/cyPm.c ****         /* Preserve last reset reason and wakeup polarity. Then, unfreeze I/O:
ARM GAS  C:\Users\zozo\AppData\Local\Temp\ccy30qtq.s 			page 59


 420:.\Generated_Source\PSoC4/cyPm.c ****          * write PWR_STOP.FREEZE=0, .UNLOCK=0x3A, .STOP=0, .TOKEN
 421:.\Generated_Source\PSoC4/cyPm.c ****          */
 422:.\Generated_Source\PSoC4/cyPm.c ****         CY_PM_PWR_STOP_REG = CY_PM_PWR_STOP_UNLOCK |
 990              		.loc 1 422 0
 991 0002 E824     		mov	r4, #232
 417:.\Generated_Source\PSoC4/cyPm.c **** 
 992              		.loc 1 417 0
 993 0004 FFF7FEFF 		bl	CyEnterCriticalSection
 994              	.LVL19:
 423:.\Generated_Source\PSoC4/cyPm.c ****                             (CY_PM_PWR_STOP_REG & (CY_PM_PWR_STOP_TOKEN_MASK | CY_PM_PWR_STOP_POLAR
 995              		.loc 1 423 0
 996 0008 074B     		ldr	r3, .L32
 997 000a 0849     		ldr	r1, .L32+4
 998 000c 1A68     		ldr	r2, [r3]
 422:.\Generated_Source\PSoC4/cyPm.c ****                             (CY_PM_PWR_STOP_REG & (CY_PM_PWR_STOP_TOKEN_MASK | CY_PM_PWR_STOP_POLAR
 999              		.loc 1 422 0
 1000 000e A401     		lsl	r4, r4, #6
 1001              		.loc 1 423 0
 1002 0010 0A40     		and	r2, r1
 422:.\Generated_Source\PSoC4/cyPm.c ****                             (CY_PM_PWR_STOP_REG & (CY_PM_PWR_STOP_TOKEN_MASK | CY_PM_PWR_STOP_POLAR
 1003              		.loc 1 422 0
 1004 0012 2243     		orr	r2, r4
 1005 0014 1A60     		str	r2, [r3]
 424:.\Generated_Source\PSoC4/cyPm.c **** 
 425:.\Generated_Source\PSoC4/cyPm.c ****         /* If reading after writing, read this register three times to delay
 426:.\Generated_Source\PSoC4/cyPm.c ****         *  enough time for internal settling.
 427:.\Generated_Source\PSoC4/cyPm.c ****         */
 428:.\Generated_Source\PSoC4/cyPm.c ****         (void) CY_PM_PWR_STOP_REG;
 1006              		.loc 1 428 0
 1007 0016 1A68     		ldr	r2, [r3]
 429:.\Generated_Source\PSoC4/cyPm.c ****         (void) CY_PM_PWR_STOP_REG;
 1008              		.loc 1 429 0
 1009 0018 1A68     		ldr	r2, [r3]
 430:.\Generated_Source\PSoC4/cyPm.c **** 
 431:.\Generated_Source\PSoC4/cyPm.c ****         /* Lock STOP mode: write PWR_STOP.FREEZE=0, UNLOCK=0x00, STOP=0, .TOKEN */
 432:.\Generated_Source\PSoC4/cyPm.c ****         CY_PM_PWR_STOP_REG &= (CY_PM_PWR_STOP_TOKEN_MASK | CY_PM_PWR_STOP_POLARITY);
 1010              		.loc 1 432 0
 1011 001a 1A68     		ldr	r2, [r3]
 433:.\Generated_Source\PSoC4/cyPm.c **** 
 434:.\Generated_Source\PSoC4/cyPm.c ****         CyExitCriticalSection(interruptState);
 435:.\Generated_Source\PSoC4/cyPm.c ****     }
 1012              		.loc 1 435 0
 1013              		@ sp needed
 432:.\Generated_Source\PSoC4/cyPm.c **** 
 1014              		.loc 1 432 0
 1015 001c 1140     		and	r1, r2
 1016 001e 1960     		str	r1, [r3]
 434:.\Generated_Source\PSoC4/cyPm.c ****     }
 1017              		.loc 1 434 0
 1018 0020 FFF7FEFF 		bl	CyExitCriticalSection
 1019              	.LVL20:
 1020              		.loc 1 435 0
 1021 0024 10BD     		pop	{r4, pc}
 1022              	.L33:
 1023 0026 C046     		.align	2
 1024              	.L32:
 1025 0028 2C000B40 		.word	1074462764
ARM GAS  C:\Users\zozo\AppData\Local\Temp\ccy30qtq.s 			page 60


 1026 002c FF000100 		.word	65791
 1027              		.cfi_endproc
 1028              	.LFE10:
 1029              		.size	CySysPmUnfreezeIo, .-CySysPmUnfreezeIo
 1030              		.text
 1031              	.Letext0:
 1032              		.file 3 ".\\Generated_Source\\PSoC4\\cytypes.h"
 1033              		.file 4 ".\\Generated_Source\\PSoC4\\CyLib.h"