ARM GAS  C:\Users\zozo\AppData\Local\Temp\ccTOXdkz.s 			page 1


   1              		.cpu cortex-m0
   2              		.fpu softvfp
   3              		.eabi_attribute 20, 1
   4              		.eabi_attribute 21, 1
   5              		.eabi_attribute 23, 3
   6              		.eabi_attribute 24, 1
   7              		.eabi_attribute 25, 1
   8              		.eabi_attribute 26, 1
   9              		.eabi_attribute 30, 4
  10              		.eabi_attribute 34, 0
  11              		.eabi_attribute 18, 4
  12              		.code	16
  13              		.file	"debug.c"
  14              		.text
  15              	.Ltext0:
  16              		.section	.gnu.lto_.profile.d9224546,"",%progbits
  17 0000 789C6366 		.ascii	"x\234cf```e\200\000F\206\225\214\031\000\002\357\001"
  17      60606065 
  17      80004686 
  17      958C1900 
  17      02EF01
  18 0013 1C       		.ascii	"\034"
  19              		.text
  20              		.section	.gnu.lto_.jmpfuncs.d9224546,"",%progbits
  21 0000 789C6366 		.ascii	"x\234cf\300\016L\2404\023\003##c=\003\023\023##s}=#"
  21      C00E4CA0 
  21      34130323 
  21      23633D03 
  21      13132323 
  22 0018 03031431 		.ascii	"\003\003\0241}db\\\364x\325q\346\027L?\231\030t\031"
  22      7D64625C 
  22      F478D571 
  22      E6174C3F 
  22      99187419 
  23 002c 1897334A 		.ascii	"\030\2273JA\345\030\000\330h\010\215"
  23      41E51800 
  23      D868088D 
  24              		.text
  25              		.section	.gnu.lto_.inline.d9224546,"",%progbits
  26 0000 789C6366 		.ascii	"x\234cf\300\016\242\2414\023\003\003+/#\003\023\323"
  26      C00EA2A1 
  26      34130303 
  26      2B2F2303 
  26      13D3
  27 0012 057E06B6 		.ascii	"\005~\006\266\005\362L 1F.\220\204\301s\2063\354@\231"
  27      05F24C20 
  27      31462E90 
  27      84C17386 
  27      33EC4099 
  28 0026 558CDF26 		.ascii	"U\214\337&[3\360\254\232\302\010\226d\342fb`\234\340"
  28      5B33F0AC 
  28      9AC20896 
  28      64E26662 
  28      609CE0
  29 0039 C7C4CD08 		.ascii	"\307\304\315\010\241\020<4)\006\000U\345\014\207"
  29      A1103C34 
  29      29060055 
ARM GAS  C:\Users\zozo\AppData\Local\Temp\ccTOXdkz.s 			page 2


  29      E50C87
  30              		.text
  31              		.section	.gnu.lto_.pureconst.d9224546,"",%progbits
  32 0000 789C6366 		.ascii	"x\234cf```e\200\000&\006\011&K\000\001\024\000^"
  32      60606065 
  32      80002606 
  32      09264B00 
  32      0114005E 
  33              		.text
  34              		.section	.gnu.lto_Debug_Print_Start.d9224546,"",%progbits
  35 0000 789C6590 		.ascii	"x\234e\220\275K\003A\020\305\347\315z!\030\005I\025"
  35      BD4B0341 
  35      10C5E7CD 
  35      7A211805 
  35      4915
  36 0012 AE0F4190 		.ascii	"\256\017A\220\264\266\326\376\015V\352a\223V\273\220"
  36      B4B6D6FE 
  36      0D56EA61 
  36      9356BB90 
  37 0022 BD78C255 		.ascii	"\275x\302U\022\002\212\340G\241\210\321\350\245\263"
  37      12028AE0 
  37      47A188D1 
  37      E8A5B3
  38 0031 94AB15BF 		.ascii	"\224\253\025\277H\021\020Q\213\010\261\3638A\016\011"
  38      48111051 
  38      8B08B1F3 
  38      38410E09 
  39 0041 7136E974 		.ascii	"q6\351ta\231\331\3417\357=V\321\377c\313\235\005QV*"
  39      6199D9E1 
  39      37EF3D56 
  39      D1FF63CB 
  39      9D055156 
  40 0056 14816B77 		.ascii	"\024\201kwDn\232\001\323\020\250\302\250\340\203#F-"
  40      446E9A01 
  40      D310A8C2 
  40      A8E08323 
  40      462D
  41 0068 6CEE640A 		.ascii	"l\356d\012\307Z\353\317\303vn#\2270Q\314#\031\234\240"
  41      C75AEBCF 
  41      C3766E23 
  41      973051CC 
  41      23199CA0 
  42 007c 2048EFCD 		.ascii	" H\357\315\377b5\011\222\376f\353\341r\"\177\244u5\274"
  42      FF623509 
  42      92FE66EB 
  42      E172227F 
  42      A47535BC 
  43 0090 0AF41C12 		.ascii	"\012\364\034\022\321l@\311\006flL\333$\003\302)\362"
  43      D16C40C9 
  43      06666C4C 
  43      DB2403C2 
  43      29F2
  44 00a2 068EBC7E 		.ascii	"\006\216\274~'\223\362D{j\244\2113\244$\026\265\262"
  44      2793F244 
  44      7B6AA489 
  44      33A42416 
  44      B5B2
ARM GAS  C:\Users\zozo\AppData\Local\Temp\ccTOXdkz.s 			page 3


  45 00b4 A11E0CE2 		.ascii	"\241\036\014\342\333\272_dKa\310SW\010\023\357\235\331"
  45      DBBA5F64 
  45      4B61C853 
  45      570813EF 
  45      9DD9
  46 00c6 54F58CF5 		.ascii	"T\365\214\365\260}\315f\307\210\035\2647\003.\377h_"
  46      B07DCD66 
  46      C7881DB4 
  46      37032EFF 
  46      685F
  47 00d8 A713E658 		.ascii	"\247\023\346Xl\010M\224\305P\321\023\252\333Q\247n\031"
  47      6C084D94 
  47      C550D113 
  47      AADB51A7 
  47      6E19
  48 00ea F62F3AD6 		.ascii	"\366/:\3267\3162}\355\336?\246{,\223\341\263\341z{\330"
  48      37CE327D 
  48      EDDE3FA6 
  48      7B2C93E1 
  48      B3E17A7B 
  49 00ff C7AEAB0D 		.ascii	"\307\256\253\015\005\234\243\214\013\310\317!\220\361"
  49      059CA38C 
  49      0BC8CF21 
  49      90F1
  50 010d B7A8BEC0 		.ascii	"\267\250\276\300\015\243\371\241?\231x0\261Dl\274\270"
  50      0DA3F9A1 
  50      3F997830 
  50      B1446CBC 
  50      B8
  51 011e B0EC2CAE 		.ascii	"\260\354,\256\256\024\227\310*9kN\351\027\277\021r8"
  51      AE1497C8 
  51      2A396B4E 
  51      E917BF11 
  51      7238
  52              		.text
  53              		.section	.gnu.lto_Debug_Print.d9224546,"",%progbits
  54 0000 789CA558 		.ascii	"x\234\245X\011p\224U\022~\375\376\2712398r\223\233\\"
  54      09709455 
  54      127EFDFE 
  54      B9323339 
  54      3872939B 
  55 0015 DCC82102 		.ascii	"\334\310!\002rT!\012.j\341\202\024\205[\245\200\256"
  55      7254210A 
  55      2E6AE182 
  55      14855BA5 
  55      80AE
  56 0027 55EE96E5 		.ascii	"U\356\226\345\261K\271\313:9\010Q\210\"\212F%\220EA"
  56      B14BB9CB 
  56      3A390851 
  56      88228A46 
  56      25904541 
  57 003b 1623871C 		.ascii	"\026#\207\034\006\010d\002\310)\211\010\304 \022\002"
  57      06086402 
  57      C8298908 
  57      C4201202 
  58 004b 0444394C 		.ascii	"\004D9LH`\022H\310v\367\373g2!3\224\354\2462o\376\277"
  58      48601248 
ARM GAS  C:\Users\zozo\AppData\Local\Temp\ccTOXdkz.s 			page 4


  58      C876F7FB 
  58      67322133 
  58      94ECA632 
  59 0062 5F77BF3E 		.ascii	"_w\277>\276\356\376\377\321D\347\277>R\210\227#\204"
  59      BEEEFEFF 
  59      D144E7BF 
  59      3E528897 
  59      2384
  60 0074 9889D7D0 		.ascii	"\230\211\327\320K\200\\T.D\206EJ\355X\177\341\260\246"
  60      4B805C54 
  60      2E448645 
  60      4AED587F 
  60      E1B0A6
  61 0087 96C40A87 		.ascii	"\226\304\012\207]\203\024\"\203A\032\263\322\220j\312"
  61      5D831422 
  61      83411AB3 
  61      D2906ACA 
  62 0097 4B41AA11 		.ascii	"KA\252\021\222\025\263I\232\353B\221l/\034\206d3X\025"
  62      9215B349 
  62      9AEB4291 
  62      6C2F1C86 
  62      64335815 
  63 00ab D90201EA 		.ascii	"\331\002\001\352\"@Q\312,ViY\270O \247-\333\214\234"
  63      224051CA 
  63      2C566959 
  63      B84F20A7 
  63      2DDB8C9C 
  64 00bf 36B702BB 		.ascii	"6\267\002\273\014d\005a\254 P\006\025Z\361.\270n7\362"
  64      0C640561 
  64      AC205006 
  64      155AF12E 
  64      B86E37F2 
  65 00d3 DA832058 		.ascii	"\332\203 Xq\005C\010[\021\"\323*XK\2272\023\356\247"
  65      71054308 
  65      5B1122D3 
  65      2A584B97 
  65      3213EEA7 
  66 00e7 29F2D82E 		.ascii	")\362\330.\320\235\267\273B7\305\337M\021\312,\335e"
  66      D09DB7BB 
  66      4237C5DF 
  66      4D11CA2C 
  66      DD65
  67 00f9 D777F693 		.ascii	"\327w\366\223@h\006\011\204\272\217\015\223\341'\351"
  67      40680609 
  67      84BA8F0D 
  67      93E127E9 
  68 0109 A088CD7C 		.ascii	"\240\210\315|P\270\233\036!#\331\234\236lN$D)r\224L"
  68      50B89B1E 
  68      2123D99C 
  68      9E6C4E24 
  68      44297294 
  69 011e 57E746F3 		.ascii	"W\347F\363\271\351\212>6Z\366\310MEj\014\255\366\036"
  69      B9E98A3E 
  69      365AF6C8 
  69      4D456A0C 
  69      ADF61E
  70 0131 10A3B863 		.ascii	"\020\243\270cd\354BR\022\227\375\000\222c!N\221\343"
ARM GAS  C:\Users\zozo\AppData\Local\Temp\ccTOXdkz.s 			page 5


  70      64EC4252 
  70      1297FD00 
  70      9263214E 
  70      91E3
  71 0143 2091AD8C 		.ascii	" \221\255\214\207\004EHP\2042K\242\214WV&\261\225In"
  71      87044548 
  71      5084324B 
  71      A28C5756 
  71      26B19549 
  72 0158 6B7ACAD4 		.ascii	"kz\312\324]\032\222\223\313\017\222\225\311*\027cS\244"
  72      5D1A9293 
  72      CB0F9295 
  72      C92A1763 
  72      53A4
  73 016a 810956DE 		.ascii	"\201\011V\336\265\247\002\020Y\200xCj\006\243\311l\011"
  73      B5A70210 
  73      59807843 
  73      6A06A3C9 
  73      6C09
  74 017c B0DAEC81 		.ascii	"\260\332\354\201A\301!i]\272v\353\036\032\026\036\021"
  74      41C12169 
  74      5DBA76EB 
  74      1E1A161E 
  74      11
  75 018d 19951EDD 		.ascii	"\031\225\036\335#&6.>!1\251grJ*\274aNQ \210\022`\243"
  75      2326362E 
  75      3E2131A9 
  75      67724A2A 
  75      BC614E51 
  76 01a6 7FFC4B14 		.ascii	"\177\374K\024`\247\177\374\013i\247vo\247Z\225\310/"
  76      60A77FFC 
  76      0B69A776 
  76      6FA75A95 
  76      C82F
  77 01b8 B25EC222 		.ascii	"\262^\302\"\347\027\371\266\324\225\016\207\243n\361"
  77      E717F9B6 
  77      D4950E87 
  77      A36EF1
  78 01c7 A9887911 		.ascii	"\251\210y\021\315\010\246\006\251\030\340sHE\226\213"
  78      CD08A606 
  78      A918E073 
  78      4845968B 
  79 01d7 35B98D52 		.ascii	"5\271\215R\013\004\201\327\207\226|\267\305\236\374"
  79      0B0481D7 
  79      87967CB7 
  79      C59EFC
  80 01e6 A9C391E9 		.ascii	"\251\303\221\351,^\353\030\003\315\022`5h(\001}\242"
  80      2C5EEB18 
  80      03CD1260 
  80      35682801 
  80      7DA2
  81 01f8 203D4A20 		.ascii	" =J A\300\177 \031y\227\314\277\275 H\353\306r[\327"
  81      41C07F20 
  81      197997CC 
  81      BFBD2048 
  81      EBC6725B 
  82 020d 361EB65D 		.ascii	"6\036\266]\224\315R\306\323\355\266\305\373\363Mt\253"
ARM GAS  C:\Users\zozo\AppData\Local\Temp\ccTOXdkz.s 			page 6


  82      94CD52C6 
  82      D3EDB6C5 
  82      FBF34D74 
  82      AB
  83 021e 19E836EF 		.ascii	"\031\3506\357v\356\361@\324\352\314t\226\177\345\030"
  83      76EEF140 
  83      D4EACC74 
  83      967FE518 
  84 022e 63689606 		.ascii	"ch\226\006X\243\264~\001QP\004\244\327 \340KH&\366\003"
  84      58A3B47E 
  84      01515004 
  84      A4D720E0 
  84      4B4826F6 
  85 0243 8EB71605 		.ascii	"\216\267\026\005iQJ\361\027yu\306\244\177\243A5\227"
  85      69514AF1 
  85      177975C6 
  85      A47FA341 
  85      3597
  86 0255 E6EDB33B 		.ascii	"\346\355\263;\366;\262k\332\332\342\232\245\021\326"
  86      F63BB26B 
  86      DADAE29A 
  86      A511D6
  87 0264 76D4A0FE 		.ascii	"v\324\240\376Pdmu^\231UK`\361\266\217N\335\307\322\205"
  87      50646D75 
  87      5E99554B 
  87      60F1B68F 
  87      4EDDC7D2 
  88 0279 97579A3C 		.ascii	"\227W\232<\262&X\357Gv\315\352\242[6-\205ew\036\274"
  88      B22658EF 
  88      4776CDEA 
  88      A25B362D 
  88      8565771E 
  89 028e F5938D85 		.ascii	"\365\223\215\205\235k\320\352\354B\307\355\2666 \351"
  89      9D6BD0EA 
  89      EC42C7ED 
  89      B63620E9 
  90 029e AFFC4837 		.ascii	"\257\374H7\316_w\322\254\365f\351\217\332\012\216\007"
  90      CE5F77D2 
  90      ACF566E9 
  90      8FDA0A8E 
  90      07
  91 02af 28E9E28E 		.ascii	"(\351\342\216\322\233\374H\237+]\177\323\246\365e\351"
  91      D29BFC48 
  91      9F2B5D7F 
  91      D3A6F565 
  91      E9
  92 02c0 E6F7DE5C 		.ascii	"\346\367\336\\\302\001\224\016\215\356O\273N\3572s@"
  92      C201940E 
  92      8DEE4FBB 
  92      4EEF3273 
  92      40
  93 02d1 07D0EDAF 		.ascii	"\007\320\355\257e_~`!\345\016gi\246\227r3lQ\312\277"
  93      655F7E60 
  93      21E50E67 
  93      69A69772 
  93      336C51CA 
  94 02e6 46E5C5DE 		.ascii	"F\345\305\336\312w8\257\271\202\264\301\254\374\373"
ARM GAS  C:\Users\zozo\AppData\Local\Temp\ccTOXdkz.s 			page 7


  94      CA7738AF 
  94      B982B4C1 
  94      ACFCFB
  95 02f5 F3AD07EC 		.ascii	"\363\255\007\354\312\264\223\035M\333\346\307\264\232"
  95      CAB4931D 
  95      4DDBE6C7 
  95      B49A
  96 0303 15BB8B2C 		.ascii	"\025\273\213,\332p\226^\277\241h\257Ee\344\312\371\275"
  96      DA70965E 
  96      BFA168AF 
  96      4565E4CA 
  96      F9BD
  97 0315 3647BE3B 		.ascii	"6G\276;\252\000%\336H\361\010_\272\222\233g\327F\263"
  97      AA0025DE 
  97      48F1085F 
  97      BA929B67 
  97      D746B3
  98 0328 7041B1E3 		.ascii	"pA\261\343\252\212J\315\325\225\336\351\264\300N?g\357"
  98      AA8A4ACD 
  98      D595DEE9 
  98      B4C04E3F 
  98      67EF
  99 033a 5E52B0CF 		.ascii	"^R\260\317\256\215c\361E;W\254`qG\315o+\367z\211\007"
  99      AE8D63F1 
  99      453B57AC 
  99      607147CD 
  99      6F2BF77A 
 100 0350 80D38F78 		.ascii	"\200\323\217x}v\353\0176S6\212\204\300:H\202\015\370"
 100      7D76EB0F 
 100      3653368A 
 100      84C03A48 
 100      820DF8
 101 0363 D9889FCD 		.ascii	"\331\210\237\315\370\331\212\237\355\370\331\201\237"
 101      F8D98A9F 
 101      EDF8D981 
 101      9F
 102 0370 52FC9441 		.ascii	"R\374\224A\222*\016\330\005&\020\302rW\011\344^\327"
 102      922A0ED8 
 102      052610C2 
 102      725709E4 
 102      5ED7
 103 0382 D599D9D6 		.ascii	"\325\231\331\326\266\361\372\342\213I\206g\2600\220"
 103      B6F1FAE2 
 103      8B498667 
 103      B03090
 104 0391 5D132480 		.ascii	"]\023$\200`F\021\243 !\023\257f^-\274\006\360j\025\244"
 104      604611A3 
 104      202113AF 
 104      665E2DBC 
 104      06F06A15 
 105 03a6 CACE6B28 		.ascii	"\312\316k(\026\2005\014\250\262\302\251\026\"p\261E"
 105      1680350C 
 105      A8B2C2A9 
 105      162270B1 
 105      45
 106 03b7 D255342D 		.ascii	"\322U4-1t\033\313\234qxi\217\307\305\222@W\211|h\022"
 106      31741BCB 
ARM GAS  C:\Users\zozo\AppData\Local\Temp\ccTOXdkz.s 			page 8


 106      9C717869 
 106      8FC7C592 
 106      4057897C 
 107 03cd 8927F365 		.ascii	"\211'\363e\012\361\2471k:1\364\"\326\336t\325G\220\311"
 107      0AF1A731 
 107      6B3A31F4 
 107      22D6DE74 
 107      D54790C9 
 108 03e1 7DF1D2D8 		.ascii	"}\361\322\330\017\227\300\376l\351\000\266e 1\014b\302"
 108      0F97C0FE 
 108      6CE900B6 
 108      6520310C 
 108      62C2
 109 03f3 60260C21 		.ascii	"`&\014!\302PR;\214\024\016g\205#\2108\222\024>HW\243"
 109      C250523B 
 109      8C140E67 
 109      85238838 
 109      92143E48 
 110 0409 04C56134 		.ascii	"\004\305a4)\034CL\343\230\351!\332\032OL\017s\020\036"
 110      291C434C 
 110      E398E921 
 110      DA1A4F4C 
 110      0F73101E 
 111 041d 617D1378 		.ascii	"a}\023x\235\310\353\243\3041\2117\037\243\313\307\231"
 111      9DC8EBA3 
 111      C4318937 
 111      1FA3CBC7 
 111      99
 112 042e FA04AF93 		.ascii	"\372\004\257\223\331\206'\371z\012\257S\211\345)\276"
 112      D98627F9 
 112      7A0AAF53 
 112      89E529BE 
 113 043e 9C46F64C 		.ascii	"\234F\366L\247\243f\360QB\324b\266\016\030\304y)\361"
 113      A7A366F0 
 113      5142D462 
 113      B60E18C4 
 113      7929F1
 114 0451 4BAB844C 		.ascii	"K\253\204L\347\211\005=8{\310NuS[q\304Buc\302\244\356"
 114      E789053D 
 114      387BC84E 
 114      75535B71 
 114      C4427563 
 115 0468 465C208B 		.ascii	"F\\ \213\343k`\216\355\314q\344\343UY\301\314\201\371"
 115      E36B608E 
 115      EDCC71E4 
 115      E35559C1 
 115      CC81F9
 116 047b DBA3389C 		.ascii	"\333\2438\234\365\013\002\231\245\224Y\366\264\346]"
 116      F50B0299 
 116      A59459F6 
 116      B4E65D
 117 048a B0CCBD45 		.ascii	"\260\314\275E\325\326\267Y\006q\233\022\360\015\314"
 117      D5D6B759 
 117      06719B12 
 117      F00DCC
 118 0499 153F42E6 		.ascii	"\025?B\346\342\372\226\263\0321\273d(\362.;\372\366"
 118      E2FA96B3 
ARM GAS  C:\Users\zozo\AppData\Local\Temp\ccTOXdkz.s 			page 9


 118      1A31BB64 
 118      28F22E3B 
 118      FAF6
 119 04ab 5A89BCB9 		.ascii	"Z\211\274\271\016\013\206\245U*\020z\3140\362\355\352"
 119      0E0B86A5 
 119      552A107A 
 119      CC30F2ED 
 119      EA
 120 04bc 8CECA550 		.ascii	"\214\354\245P\000\237d8\210\013`/\314\205}\004Z\330"
 120      009F6438 
 120      880B602F 
 120      CC857D04 
 120      5AD8
 121 04ce 8F64711C 		.ascii	"\217dq\034\262+\262b\225\3160T\313P>/5\374\200\270\000"
 121      B22BB262 
 121      95CE3054 
 121      CB503E2F 
 121      35FC80B8 
 122 04e3 33C84CF9 		.ascii	"3\310L\371\355\251\313\022\011\006Q:HC\201\023Y\256"
 122      EDA9CB12 
 122      0906513A 
 122      48438113 
 122      59AE
 123 04f5 0FE39448 		.ascii	"\017\343\224H\004\365\364\272u[\270\177\020*\016\350"
 123      04F5F4BA 
 123      755BB87F 
 123      102A0EE8 
 124 0505 F5701E8F 		.ascii	"\365p\036\217_\037\305Qj;\324\235\230\221\263\341\223"
 124      5F1FC551 
 124      6A3BD49D 
 124      9891B3E1 
 124      93
 125 0516 33859A36 		.ascii	"3\205\2326\201\313\353\343\274\023kU\307\253\371\345"
 125      81CBEBE3 
 125      BC136B55 
 125      C7ABF9E5 
 126 0526 9BA79D19 		.ascii	"\233\247\235\031\356\306\020\014\007;W6\034\202$<L\374"
 126      EEC6100C 
 126      073B5736 
 126      1C82243C 
 126      4CFC
 127 0538 04D9CED3 		.ascii	"\004\331\316\323{e\207Rc\375\270\317\205\324 \341\216"
 127      7B658752 
 127      63FDB8CF 
 127      85D420E1 
 127      8E
 128 0549 4214F02D 		.ascii	"B\024\360-PB\016\343zg\314B\032\244\344m(\307\000\343"
 128      50420EE3 
 128      7A67CC42 
 128      1AA4E46D 
 128      28C700E3 
 129 055d 01CDB20B 		.ascii	"\001\315\262\013\3069+?go\361\237\224\203\221.\031N"
 129      C6392B3F 
 129      676FF19F 
 129      9483912E 
 129      194E
 130 056f 7650F455 		.ascii	"vP\364U*1#H\0267\301\361Q\361\331\003\222h\354\257I"
ARM GAS  C:\Users\zozo\AppData\Local\Temp\ccTOXdkz.s 			page 10


 130      2A312348 
 130      1637C1F1 
 130      51F1D903 
 130      9268ECAF 
 131 0584 BC1DA9B1 		.ascii	"\274\035\251\261pu\361T%\034\355[8\232\0107\336\272"
 131      7075F154 
 131      251CED5B 
 131      389A0837 
 131      DEBA
 132 0596 5AFC9262 		.ascii	"Z\374\222b\213\361\316\232\201\263\266\271i\371\225"
 132      8BF1CE9A 
 132      81B3B6B9 
 132      69F995
 133 05a5 40CC1A05 		.ascii	"@\314\032\005\004\005\240\2023\366\235\236\261\252\254"
 133      0405A082 
 133      33F69D9E 
 133      B1AAAC
 134 05b4 7FB54BCE 		.ascii	"\177\265K\316_|\245\200\307\241\365\025\001G<\3417\213"
 134      5F7CA580 
 134      C7A1F515 
 134      01473CE1 
 134      378B
 135 05c6 6C3399B3 		.ascii	"l3\231\2638\347vq1(\366X\227\264\352\270\223nX\"\225"
 135      38E77671 
 135      3128F658 
 135      97B4EAB8 
 135      936E5822 
 136 05db 5CFE20A7 		.ascii	"\\\376 \247\321\240\230\342\220\011\325~v\344\364\021"
 136      D1A098E2 
 136      9009D57E 
 136      76E4F411 
 137 05eb 8DB18AFD 		.ascii	"\215\261\212\375\345{\210\342\270\230\024K|\007\240"
 137      E57B88E2 
 137      B898144B 
 137      7C07A0
 138 05fa D634ADB4 		.ascii	"\3264\255\264\265C\365(\314E\035\312\303\333\305K\365"
 138      B543F528 
 138      CC451DCA 
 138      C3DBC54B 
 138      F5
 139 060b 9313BC5D 		.ascii	"\223\023\274]\264\334\351\"\251\204c\354\342qr\021\205"
 139      B4DCE922 
 139      A98463EC 
 139      E2717211 
 139      85
 140 061c ABE6EFD1 		.ascii	"\253\346\357\321\221\236\210\322\036\203\327\221\301"
 140      919E88D2 
 140      1E83D791 
 140      C1
 141 0629 89ECA045 		.ascii	"\211\354\240E\340\303#\003lcy\230\016\260{\003U%)K\362"
 141      E0C32303 
 141      6C637998 
 141      0EB07B03 
 141      5525294B 
 142 063e 0D2AD259 		.ascii	"\015*\322Yy\027P\375\300\240\252\362\007*\332\206\023"
 142      791750FD 
 142      C0A0AAF2 
ARM GAS  C:\Users\zozo\AppData\Local\Temp\ccTOXdkz.s 			page 11


 142      072ADA86 
 142      13
 143 064f 0CAA2402 		.ascii	"\014\252$\002\025\031\034\300\006+xm-\321\003\203p\000"
 143      15191CC0 
 143      062B786D 
 143      2DD10383 
 143      7000
 144 0661 32A98383 		.ascii	"2\251\203\203\311\314o\025\370\010G\016\206\010E\006"
 144      C9CC6F15 
 144      F808470E 
 144      86084506 
 145 0671 15D516A9 		.ascii	"\025\325\026\251D\223:\006\021H\223\252\354\037u\234"
 145      44933A06 
 145      114893AA 
 145      EC1F759C 
 146 0681 9CC85A05 		.ascii	"\234\310Z\005\355\274\031\253\266/\344\271\216\317l"
 146      EDBC19AB 
 146      B62FE4B9 
 146      8ECF6C
 147 0690 705201E5 		.ascii	"pR\001\345\002\240X\242\271\245\276\006\277\223\003"
 147      02A058A2 
 147      B9A5BE06 
 147      BF9303
 148 069f 16363451 		.ascii	"\02664Q\241\333t\354\344\347Tn\325\353 \205P\330\031"
 148      A1DB74EC 
 148      E4E7546E 
 148      D5EB2085 
 148      50D819
 149 06b2 CA295C07 		.ascii	"\312)\\\007M\027\274\352\300.\336\352\2521H]K\343\332"
 149      4D17BCEA 
 149      C02EDEEA 
 149      AA31485D 
 149      4BE3DA
 150 06c5 617AEE9B 		.ascii	"az\356\233%U\334\373\254\263\004\374\344\201i\240\310"
 150      2555DCFB 
 150      ACB304FC 
 150      E48169A0 
 150      C8
 151 06d6 35EA30DD 		.ascii	"5\3520\335\272H76\315'L\323\024L\217\351\260H'\246;"
 151      BA483736 
 151      CD274CD3 
 151      144C8FE9 
 151      B04827A6 
 152 06eb 70D9EB2E 		.ascii	"p\331\353.\270<E\270L\327q\271\365U%\320\273\023\016"
 152      B83C45B8 
 152      4CD771B9 
 152      F55525D0 
 152      BB130E
 153 06fe 7BE938AC 		.ascii	"{\3518\254\326qX=\277V\017w\037d\367XTF\026\365\241"
 153      D671583D 
 153      BF560F77 
 153      1F64F758 
 153      544616F5 
 154 0713 187F9BF5 		.ascii	"\030\177\233\365iA\264\316\341\035\344@Tr\332\343f\220"
 154      6941B4CE 
 154      E11DE440 
 154      5472DAE3 
ARM GAS  C:\Users\zozo\AppData\Local\Temp\ccTOXdkz.s 			page 12


 154      6690
 155 0725 38AEA7F2 		.ascii	"8\256\247\362\236QZ\303sa\305\2715\373\270\034\203\373"
 155      9E515AC3 
 155      7361C5B9 
 155      35FBB81C 
 155      83FB
 156 0737 0A38837A 		.ascii	"\0128\203z}\242\366xy \361\373E\355YF\3559\177\250\245"
 156      7DA2F678 
 156      7920F1FB 
 156      45ED5946 
 156      ED397FA8 
 157 074c 6DA845D4 		.ascii	"m\250E\324\322\011\252\027f\036\313\251\336\366G\345"
 157      D209AA17 
 157      661ECBA9 
 157      DEF647E5 
 158 075c 5F3F7299 		.ascii	"_?r\231c\262G\217I\177$zb\262\201b\322\237\335\015\246"
 158      63B2478F 
 158      497F247A 
 158      62B28162 
 158      D29FDD0D 
 159 0771 AC22B826 		.ascii	"\254\"\270&c\314\002/_\377'\322\203J\256\027\302\005"
 159      63CC022F 
 159      5FFF27D2 
 159      834AAE17 
 159      C205
 160 0783 98409331 		.ascii	"\230@\2231p\241\253\010\350\"\210\230C\304\271\221\240"
 160      70A1AB08 
 160      E8228898 
 160      43C4B991 
 160      A0
 161 0794 60BE9954 		.ascii	"`\276\231T\030\205\272a}\232`pTn\177]\2358\000\367;"
 161      1885BA61 
 161      7D9A6070 
 161      546E7F5D 
 161      9D3800F7 
 162 07a9 60834506 		.ascii	"`\203E\006\020\327\246\234=F\3054\020\345\350U\340f"
 162      10D7A69C 
 162      3D46C534 
 162      10E5E855 
 162      E066
 163 07bb FDE1208A 		.ascii	"\375\341 \212\231\035\037\177\316\203\002\357\231\236"
 163      991D1F7F 
 163      CE8302EF 
 163      999E
 164 07c9 7AAF587A 		.ascii	"z\257Xztg\255"
 164      7467AD
 165 07d0 ADFF9714 		.ascii	"\255\377\227\024\266\0214\221\267\252\263)\344\027\000"
 165      B6113491 
 165      B7AAB329 
 165      E41700
 166 07df 1D1B483A 		.ascii	"\035\033H:\227\346To\327\2612\010\225\262\226\016\376"
 166      97E6546F 
 166      D7B13208 
 166      95B2960E 
 166      FE
 167 07f0 0E5275D6 		.ascii	"\016Ru\326P\220\256syc\000\337\220\340gw\241i.99\030"
 167      5090AE73 
ARM GAS  C:\Users\zozo\AppData\Local\Temp\ccTOXdkz.s 			page 13


 167      796300DF 
 167      90E06777 
 167      A1692E39 
 168 0806 AB6C505A 		.ascii	"\253lPZ\211\353\"\036at\311\011t? \255\310\325\010\370"
 168      89EB221E 
 168      6174C909 
 168      743F20AD 
 168      C8D508F8 
 169 081a 7491264E 		.ascii	"t\221&N\336\017\3471\352*vO\341V\010\305\247+\306G/"
 169      DE0FE731 
 169      EA2A764F 
 169      E15608C5 
 169      A72BC647 
 170 082f 91ED33D4 		.ascii	"\221\3553\324)\203]\222\\\270\235ut\013p\217n\303\277"
 170      29835D92 
 170      5CB89D75 
 170      740B708F 
 170      6EC3BF
 171 0842 600117EF 		.ascii	"`\001\027\357\014\314`\362y\333\206\332\215f%8\304\343"
 171      0CCC60F2 
 171      79DB86DA 
 171      8D662538 
 171      C4E3
 172 0854 785F8FCF 		.ascii	"x_\217\317\203\331\347_\240\277[\024y\366;\316l1k\177"
 172      83D9E75F 
 172      A0BF5B14 
 172      79F63BCE 
 172      6C316B7F 
 173 0868 60047D37 		.ascii	"`\004}7\257~\223\335\015\327\331N\257G\370_}=\007\303"
 173      AF7E93DD 
 173      0DD7D94E 
 173      AF47F85F 
 173      7D3D07C3 
 174 087c 25523A44 		.ascii	"%R:D\315\321\312e\326\216\010}\267\"\206\030t\204j\235"
 174      CDD1CA65 
 174      D68E087D 
 174      B7228618 
 174      74846A9D 
 175 0890 107A9911 		.ascii	"\020z\231\021z\205l\355K\036~_\236k\216\233\\\340\310"
 175      7A856CED 
 175      4B1E7E5F 
 175      9E6B8E9B 
 175      5CE0C8
 176 08a3 8F6FC640 		.ascii	"\217o\306@ \305\271c\325\373\032\2426\337Q\363\353\247"
 176      20C5B963 
 176      D5FB1AA2 
 176      36DF51F3 
 176      EBA7
 177 08b5 58DFDDE0 		.ascii	"X\337\335\340*\304\261\030\374F%>\204\001\330M\305\014"
 177      2AC4B118 
 177      FC46253E 
 177      8401D84D 
 177      C50C
 178 08c7 6B7DD748 		.ascii	"k}\327H\345\371\320N\335\262\257\336-\353\250\324\333"
 178      E5F9D04E 
 178      DDB2AFDE 
 178      2DEBA8D4 
ARM GAS  C:\Users\zozo\AppData\Local\Temp\ccTOXdkz.s 			page 14


 178      DB
 179 08d8 5DBFB7EA 		.ascii	"]\277\267\352\254'g\207\372\256\306w+\302h\337o5^c_"
 179      AC276787 
 179      FAAEC677 
 179      2BC268DF 
 179      6F355E63 
 180 08ed 1BFC5523 		.ascii	"\033\374U#mC#\317\220\241\356\031\322]\\*\023\336\305"
 180      6D4323CF 
 180      90A1EE19 
 180      D25D5C2A 
 180      13DEC5
 181 0900 6252F873 		.ascii	"bR\370s\025\364Sn\232\332\001\207wOuA?\007wk\374;\212"
 181      15F4536E 
 181      9ADA0187 
 181      774F7541 
 181      3F07776B 
 182 0917 86EA9D16 		.ascii	"\206\352\235\026\223R\2427\365a\276\233\3720\325\324"
 182      9352A237 
 182      F561BE9B 
 182      FA30D5D4 
 183 0927 AF7935F5 		.ascii	"\257y5\3650\221\031\250\232\372\327\313\274\232\372"
 183      309119A8 
 183      9AFAD7CB 
 183      BC9AFA
 184 0936 877B2A9D 		.ascii	"\207{*\235\014@\353L\001\327=\335.\\\324\202\216\330"
 184      0C40EB4C 
 184      01D73DDD 
 184      2E5CD482 
 184      8ED8
 185 0948 92F7F5A6 		.ascii	"\222\367\365\246>\334gS\037\256\232z\255\336\324G\370"
 185      3EDC6753 
 185      1FAE9A7A 
 185      ADDED447 
 185      F8
 186 0959 68EA23EF 		.ascii	"h\352#\357\322\324oP\306G\350M\275d\216\022x\260SS\037"
 186      D2D46F50 
 186      C647E84D 
 186      BD648E12 
 186      78B05353 
 187 096e A9377597 		.ascii	"\2517u\227\347\341\242Qo`\243\220\335c\321\016\262h"
 187      E7E1A251 
 187      6F60A390 
 187      DD63D10E 
 187      B268
 188 0980 D4FF0C85 		.ascii	"\324\377\014\205&%\356\023\012\033*\272\323\276_(43"
 188      2625EE13 
 188      0A1B2ABA 
 188      D3BE5F28 
 188      3433
 189 0992 146EFA83 		.ascii	"\024n\372\203\002m\303-\206\302(\3173j\371\016=\215"
 189      026DC32D 
 189      86C228CF 
 189      336AF90E 
 189      3D8D
 190 09a4 637CA771 		.ascii	"c|\247q\014\247\261\352\206W\032#\3042\233Jc\203w\032"
 190      0CA7B1EA 
 190      86571A23 
ARM GAS  C:\Users\zozo\AppData\Local\Temp\ccTOXdkz.s 			page 15


 190      C4329B4A 
 190      6383771A 
 191 09b8 371CBFF8 		.ascii	"7\034\277\370\203\225\3238G@\213'\215\221\342=M\245"
 191      8395D338 
 191      47408B27 
 191      8D91E23D 
 191      4DA5
 192 09ca F1C60E77 		.ascii	"\361\306\016w\032\307\371L\343\270\216i|\310G\032\307"
 192      1AC7F94C 
 192      E3B88E69 
 192      7CC8471A 
 192      C7
 193 09db DF258DAD 		.ascii	"\337%\215\255\224\306\207T\032o\354\320{\334\303^i\304"
 193      94C68754 
 193      1A6FECD0 
 193      7BDCC35E 
 193      69C4
 194 09ed 9717E748 		.ascii	"\227\027\347HN\345x=\225\267U\321f:\236f+6\222\025\017"
 194      4EE5783D 
 194      95B755D1 
 194      663A9E66 
 194      2B369215 
 195 0a02 F3FB5469 		.ascii	"\363\373TiE\250\273\377\361[\030y\022%\316$k^Uc\326"
 195      45A8BBFF 
 195      F15B1879 
 195      1225CE24 
 195      6B5E5563 
 196 0a17 470C8B19 		.ascii	"G\014\213\031\324\210)\337\251\217\230\211\270\337y"
 196      D48829DF 
 196      A98F9889 
 196      B8DF79
 197 0a26 C44C24AE 		.ascii	"\304L$\256&\317\210y\024\345\320\300\252\232\314\203"
 197      26CF8879 
 197      14E5D0C0 
 197      AA9ACC83 
 198 0a36 FCF06DC7 		.ascii	"\374\360m\307\356\333\366\273F\214\231\301\342\240\331"
 198      EEDBF6BB 
 198      468C99C1 
 198      E2A0D9
 199 0a45 F9A81A31 		.ascii	"\371\250\0321\225;\365\0213I)=t\266\251\301\316J\321"
 199      953BF511 
 199      3349293D 
 199      74B6A9C1 
 199      CE4AD1
 200 0a58 C40CD96E 		.ascii	"\304\014\331n\010\233;IU\374\272\345\372\304\231\324"
 200      089B3B49 
 200      55FCBAE5 
 200      FAC499D4 
 201 0a68 5EF1068C 		.ascii	"^\361\006\214A\344\345[\305X\364\223\322\213Zi\312\230"
 201      41E4E55B 
 201      C558F493 
 201      D28B5A69 
 201      CA98
 202 0a7a 2906912D 		.ascii	")\006\221-\267\212\22061}i+O\232tQ\236\210\223&Z\317"
 202      B78A9036 
 202      317D692B 
 202      4F9A7451 
ARM GAS  C:\Users\zozo\AppData\Local\Temp\ccTOXdkz.s 			page 16


 202      9E889326 
 203 0a90 6F53CE85 		.ascii	"oS\316\205\235\323\225\262\307\220\013-\330Wp\361+\003"
 203      9DD395B2 
 203      C7900B2D 
 203      D85770F1 
 203      2B03
 204 0aa2 5B802FAA 		.ascii	"[\200/\252\231h\001\037\271V\307\300c\356\0231\262="
 204      9968011F 
 204      B956C7C0 
 204      63EE1331 
 204      B23D
 205 0ab4 C4012A75 		.ascii	"\304\001*u|5\275qT\2371\217\353\301Z\254g\376\011$u"
 205      7C35BD71 
 205      549F318F 
 205      EBC15AAC 
 205      67FE0924 
 206 0ac9 8EE71314 		.ascii	"\216\347\023\024\252\272\302\273\206\352q\016U\226\354"
 206      AABAC2BB 
 206      86EA710E 
 206      5596EC
 207 0ad8 EF49640C 		.ascii	"\357Id\014\231\354\225H\013Yv8k\373\362\336\352,\013"
 207      99EC9548 
 207      0B597638 
 207      6BFBF2DE 
 207      EA2C0B
 208 0aeb 1FC4C1B0 		.ascii	"\037\304\301\260\240\031\321\3440\236\325\343\330\\"
 208      A019D1E4 
 208      309ED5E3 
 208      D85C
 209 0af9 148E1557 		.ascii	"\024\216\025W\204\302\363\315Q\212\375I\267D\007\323"
 209      84C2F3CD 
 209      518AFD49 
 209      B74407D3 
 210 0b09 9EFC1DA6 		.ascii	"\236\374\035\246Y\330\264l/\323\342\3104<\367\021T\020"
 210      59D8B46C 
 210      2FD3E2C8 
 210      343CF711 
 210      5410
 211 0b1b 5B654696 		.ascii	"[eF\226\030@r<A\217\017\255.\325\221=\305%\003:\217"
 211      1840723C 
 211      418F0FAD 
 211      2ED5913D 
 211      C525033A 
 212 0b30 EA296A54 		.ascii	"\352)jT\337v\217\352\251>F\365\024>u\236\364\036\325"
 212      DF768FEA 
 212      A93E46F5 
 212      143E759E 
 212      F41ED5
 213 0b43 F73A9E73 		.ascii	"\367:\236s$*\232\352g<7\343xF\006\277\343y>\377\270"
 213      242A9AEA 
 213      673C37E3 
 213      784606BF 
 213      E3793EFF 
 214 0b58 914B9538 		.ascii	"\221K\2258\332\3570&&xS\316\245c(2\011*\004X\334gG+"
 214      DAEF3026 
 214      267853CE 
 214      A5632832 
ARM GAS  C:\Users\zozo\AppData\Local\Temp\ccTOXdkz.s 			page 17


 214      092A0458 
 215 0b70 DFA6751A 		.ascii	"\337\246u\032\306\243\365a\374\226\374?\206\361\002"
 215      C6A3F561 
 215      FC96FC3F 
 215      86F102
 216 0b7f 726D9AEF 		.ascii	"rm\232\357\016\334\214\303x\201\364\337\201\027\262"
 216      0EDC8CC3 
 216      7881F4DF 
 216      8117B2
 217 0b8e 6779D24F 		.ascii	"gy\322O\007\246mx[R\007\236\346\036\306\211\242!\315"
 217      07A66D78 
 217      5B52079E 
 217      E61EC689 
 217      A221CD
 218 0ba1 7B1607A8 		.ascii	"{\026\007\2502\371y\271>\213\003\332+3\300%\037\211"
 218      32F979B9 
 218      3E8B03DA 
 218      2B33C025 
 218      1F89
 219 0bb3 4337A724 		.ascii	"C7\247$lz\003%\223\364\312\313\317\271Q\2527\361\351"
 219      6C7A0325 
 219      93F4CACB 
 219      CFB951AA 
 219      37F1E9
 220 0bc6 BE9BF874 		.ascii	"\276\233\370t5\213\333\274\232xO\261\300\242\232\370"
 220      358BDBBC 
 220      9A784FB1 
 220      C0A29AF8 
 221 0bd6 E79FE94D 		.ascii	"\347\237\351M\\\377\201\200\267\223\305\242A\204C;6"
 221      5CFF8180 
 221      B793C5A2 
 221      4184433B 
 221      36
 222 0be7 E19E78A4 		.ascii	"\341\236x\244\325\210K\254\255\245\276N\342KThKC!~\017"
 222      D5884BAC 
 222      ADA5BE4E 
 222      E24B5468 
 222      4B43217E 
 223 0bfc 0F6F695E 		.ascii	"\017oi^\215\337\343\222j\377\2012)\342\372\020\335\023"
 223      8DDFE392 
 223      6AFF8132 
 223      29E2FA10 
 223      DD13
 224 0c0e EEE75632 		.ascii	"\356\347V2\343\203\372\326kzC\017\347FM)\264\266\377"
 224      E383FAD6 
 224      6B7A430F 
 224      E7464D29 
 224      B4B6FF
 225 0c21 EED3F137 		.ascii	"\356\323\3617\212p\3757\212w\244\373\335So\247\021\355"
 225      8A70FD37 
 225      8A77A4FB 
 225      DD536FA7 
 225      11ED
 226 0c33 EF9A5697 		.ascii	"\357\232V\227\234\241\2415\366d\252\214T\372\031\355"
 226      9CA1A135 
 226      F664AA8C 
 226      54FA19ED 
ARM GAS  C:\Users\zozo\AppData\Local\Temp\ccTOXdkz.s 			page 18


 227 0c43 47D855C5 		.ascii	"G\330U\305-\225\000\216J\035e'\\\246\241\233\034\271"
 227      2D95008E 
 227      4A1D6527 
 227      5CA6A19B 
 227      1CB9
 228 0c55 F40BB380 		.ascii	"\364\013\263\200E\370lU\015\031\316\345\223u\367\261"
 228      45F86C55 
 228      0D19CEE5 
 228      9375F7B1 
 229 0c65 7B01CA49 		.ascii	"{\001\312I!\254\375f\314\232\375\354k\317\367\233)\214"
 229      21ACFD66 
 229      CC9AFDEC 
 229      6BCFF79B 
 229      298C
 230 0c77 2FCEFEDB 		.ascii	"/\316\376\333\354\027M/\275\362\372\370\277\274J_S\237"
 230      EC174D2F 
 230      BDF2FAF8 
 230      BFBC4A5F 
 230      539F
 231 0c89 79D1F002 		.ascii	"y\321\360\002-sp\201\027L\317\276\366\334s\263_6\276"
 231      2D737081 
 231      174CCFBE 
 231      F6DC73B3 
 231      5F36BE
 232 0c9c F0D759B3 		.ascii	"\360\327Y\263\347\030f\322\306Kc_~\3360\013\351r\346"
 232      E71866D2 
 232      C64B635F 
 232      7EDE300B 
 232      E972E6
 233 0caf 9F8D1388 		.ascii	"\237\215\023\210\336e\300\300\373\006\015\0362\364\376"
 233      DE65C0C0 
 233      FB060D1E 
 233      32F4FE
 234 0cbe 610F3CF3 		.ascii	"a\017<\363\354\314Y\263\237\023\377\005%7\262\224"
 234      ECCC59B3 
 234      9F13FF05 
 234      2537B294 
 235              		.text
 236              		.section	.gnu.lto_.symbol_nodes.d9224546,"",%progbits
 237 0000 789C6366 		.ascii	"x\234cf``hf\200\002&\215z\006\206\011\347\030\030\352"
 237      60606866 
 237      8002268D 
 237      7A068609 
 237      E71818EA 
 238 0014 EB19E62D 		.ascii	"\353\031\346-\340``UeX\300T\317\314\244Y\317\210,\314"
 238      E0606055 
 238      6558C054 
 238      CFCCA459 
 238      CF882CCC 
 239 0028 A855CF04 		.ascii	"\250U\317\004\341344\000\271\332\365\314H\\f \\\362"
 239      E1333434 
 239      00B9DAF5 
 239      CC485C66 
 239      205CF2
 240 003b E01F2333 		.ascii	"\340\037#3\023\013\303\222\266\263\273\230\301\214s"
 240      130BC392 
 240      B6B3BB98 
ARM GAS  C:\Users\zozo\AppData\Local\Temp\ccTOXdkz.s 			page 19


 240      C18C73
 241 004a 475FB383 		.ascii	"G_\263\203\031\327\2570\201\350#\217O\374+\0063^\277"
 241      19D7AF30 
 241      81E8238F 
 241      4FFC2B06 
 241      335EBF
 242 005d C8004B2C 		.ascii	"\310\000K,z9#\220\001\000\011J&u"
 242      7A392390 
 242      0100094A 
 242      2675
 243              		.text
 244              		.section	.gnu.lto_.refs.d9224546,"",%progbits
 245 0000 789C6366 		.ascii	"x\234cf``\340f\200\000F\006FF&F&\006F\026\006\000\001"
 245      6060E066 
 245      80004606 
 245      46462646 
 245      26064616 
 246 0017 72001C   		.ascii	"r\000\034"
 247              		.text
 248              		.section	.gnu.lto_.decls.d9224546,"",%progbits
 249 0000 789C7555 		.ascii	"x\234uUkLTW\020\276\263ww\201\313\362\3204\330l\232"
 249      6B4C5457 
 249      10BEB377 
 249      7781CBF2 
 249      D034D86C 
 250 0015 74890D69 		.ascii	"t\211\015i\023C\237i\374\321\304Z\332\030\3774\244h"
 250      13439F69 
 250      FCD1C45A 
 250      DA18FF34 
 250      A468
 251 0027 9A469395 		.ascii	"\232F\223\225\342\24661\332\320\245\255\277z\004\021"
 251      E2A63631 
 251      DAD0A5AD 
 251      BF7A0411 
 252 0037 3456011F 		.ascii	"4V\001\037<\213\340\223\202\262\370\200\302\242\205"
 252      3C8BE093 
 252      82B2F880 
 252      C2A285
 253 0046 051110D1 		.ascii	"\005\021\020\321\325Ep\025\344\261U\021[\203V-\304\307"
 253      D5457015 
 253      E4B15511 
 253      5B83562D 
 253      C4C7
 254 0058 76CEDC7B 		.ascii	"v\316\334{w\357\246\354I\206\275g\316\3147\337\314\234"
 254      77EFA6EC 
 254      4986BD67 
 254      CECC37DF 
 254      CC9C
 255 006a 3388022E 		.ascii	"3\210\002.\020\004?\256\317\"\005\301\213[\021%UV\013"
 255      10043FAE 
 255      CF2205C1 
 255      8B5B1125 
 255      55560B
 256 007d 0E415E7A 		.ascii	"\016A^z\024'J\007J\027J\267r\336+\204.ncP\374\033Q."
 256      14274A07 
 256      4A174AB7 
 256      72DE2B84 
ARM GAS  C:\Users\zozo\AppData\Local\Temp\ccTOXdkz.s 			page 20


 256      2E6E6350 
 257 0095 A074A2F4 		.ascii	"\240t\242\364)\347:\305\246+\214?\307\177E\343\037\213"
 257      29E73AC5 
 257      A62B8C3F 
 257      C77F45E3 
 257      1F8B
 258 00a7 624239AB 		.ascii	"bB9\253`\270Q\256\241\014\242\334@I@9\216\222\210bD"
 258      60B851AE 
 258      A10CA2DC 
 258      40494039 
 258      8E928862 
 259 00bc 1956388F 		.ascii	"\031V8\217\2404\243L\240\37049p\374\273\012\377\373"
 259      A034A34C 
 259      A0F83439 
 259      70FCBB0A 
 259      FFFB
 260 00ce 61383CD4 		.ascii	"a8<\324\301\201\354\334[zQ\007\374\373`\311\370\200"
 260      C181ECDC 
 260      5B7A5107 
 260      FCFB60C9 
 260      F880
 261 00e0 B4A89631 		.ascii	"\264\250\2261\226\317\332\333!h\324S\367\353\0321\216"
 261      96CFDADB 
 261      2168D453 
 261      F7EB1A31 
 261      8E
 262 00f1 DBE87D15 		.ascii	"\333\350}\025\015Mq\220d6K\207\310\356c8\016\022\374"
 262      0D4D7190 
 262      64364B87 
 262      C8EE6338 
 262      0E12FC
 263 0104 06A206B6 		.ascii	"\006\242\006\266\004\3653K\370\001~F\322o>c\331l\272"
 263      04F5334B 
 263      F8017E46 
 263      D26F3E63 
 263      D96CBA
 264 0117 8889AF0A 		.ascii	"\210\211\257\012\260\310\014o\231\005\250\205$\362\255"
 264      B0C80C6F 
 264      9905A885 
 264      24F2AD
 265 0126 8145021C 		.ascii	"\201E\002\034\0033\324\201\031#\350&sv\014GA\022\341"
 265      0333D481 
 265      1923E826 
 265      73760C47 
 265      4112E1
 266 0139 4F1F3B39 		.ascii	"O\037;9\370\032czp\240\341Q\020\311\030s\341\220\264"
 266      F81A637A 
 266      70A0E151 
 266      10C91873 
 266      E190B4
 267 014c E6C0AD9F 		.ascii	"\346\300\255\237\013\227\003`\"}\0233\377\230&u\020"
 267      0B970360 
 267      227D1333 
 267      FF982675 
 267      10
 268 015d 2BC5F3BC 		.ascii	"+\305\363\274\312\206n?\026qk\222t|;\330\226\227\027"
 268      CA866E3F 
ARM GAS  C:\Users\zozo\AppData\Local\Temp\ccTOXdkz.s 			page 21


 268      16716B92 
 268      747C3BD8 
 268      969717
 269 0170 297E48B5 		.ascii	")~H\265\330|\244uG\004\036%HT\201\235}e.\221\266~~\254"
 269      D87CA475 
 269      47041E25 
 269      4854819D 
 269      7D652E91 
 270 0188 F37AF7CC 		.ascii	"\363z\367\314\212 %\315\021\277\011\343'(\341Oa\370"
 270      8A2025CD 
 270      11BF09E3 
 270      2728E14F 
 270      61F8
 271 019a D3189EE7 		.ascii	"\323\030\236\347R5\023\005\320\210\304N\006\363H\220"
 271      52351305 
 271      D088C44E 
 271      06F34890 
 272 01aa 02352EC8 		.ascii	"\0025.\310u\025\350\365xk\310f\225\236\353.\026WtD/"
 272      7515E8F5 
 272      786BC866 
 272      959EEB2E 
 272      16577444 
 273 01bf D8CBF8CA 		.ascii	"\330\313\370\312a\361:HM\200\006\204<\201\220\0024\303"
 273      61F13A48 
 273      4D800684 
 273      3C819002 
 273      34C3
 274 01d1 02FCFB3B 		.ascii	"\002\374\373;\350e\200+[[\246b\305\217\210\275\363h"
 274      E865802B 
 274      5B5BA662 
 274      C58F88BD 
 274      F368
 275 01e3 F680C952 		.ascii	"\366\200\311R\311\252\032\246+;\217\274[\312\2526\263"
 275      C9AA1AA6 
 275      2B3B8FBC 
 275      5BCAAA36 
 275      B3
 276 01f4 977EA4CE 		.ascii	"\227~\244\316\235\240%@@\340\337\304\000\234`A\307\226"
 276      9DA02540 
 276      40E0DFC4 
 276      009C6041 
 276      C796
 277 0206 FAC7FDD1 		.ascii	"\372\307\375\321T \013\341\024\365\224\030\251@\304"
 277      54200BE1 
 277      14F59418 
 277      A940C4
 278 0215 A7C67962 		.ascii	"\247\306yb\227h\332\316s.\310aQ=\261\324\227Vdt\206"
 278      9768DACE 
 278      732EC861 
 278      513DB1D4 
 278      97566474 
 279 022a 189D0593 		.ascii	"\030\235\005\223\222MK\337L\265D\331\220\0165\376\013"
 279      924D4BDF 
 279      4CB544D9 
 279      900E35FE 
 279      0B
 280 023b 359D3181 		.ascii	"5\2351\201\374\376\000\002|t\251\365>\204M\260\235\022"
ARM GAS  C:\Users\zozo\AppData\Local\Temp\ccTOXdkz.s 			page 22


 280      FCFE0002 
 280      7C74A9F5 
 280      3E844DB0 
 280      9D12
 281 024d 6C5313CC 		.ascii	"lS\023\314\333\277\345/\203\370\025%\330<2\\\021I\011"
 281      DBBFE52F 
 281      83F81525 
 281      D83C325C 
 281      114909
 282 0260 56DD3B6C 		.ascii	"V\335;l\254a\355~\377\022n\017.Mn.5\267\016\312\255"
 282      AC61ED7E 
 282      FF126E0F 
 282      2E4D6E2E 
 282      35B70ECA 
 283 0275 69F6A9C3 		.ascii	"i\366\251\303\0306X'\005[\245\304\362\324{\316\306\210"
 283      18365827 
 283      055BA5C4 
 283      F2D47BCE 
 283      C688
 284 0287 368A55B4 		.ascii	"6\212U\264\377\360\2418\2145\306\246\037\370v\305\224"
 284      FFF0A138 
 284      8C35C6A6 
 284      1FF876C5 
 284      94
 285 0298 B26AB598 		.ascii	"\262j\265\230\350\003\3474\001\317\251\001\273(\340"
 285      E803E734 
 285      01CFA901 
 285      BB28E0
 286 02a7 03E7DF7D 		.ascii	"\003\347\337}1b9\020\312\223\342\226\003FB\031\353?"
 286      31623910 
 286      CA93E296 
 286      03464219 
 286      EB3F
 287 02b9 B6D5A250 		.ascii	"\266\325\242P\346\3558\257A8\257\"t\023\202\353jQ\227"
 287      E6ED38AF 
 287      4138AF22 
 287      741382EB 
 287      6A5197
 288 02cc 24D6CB08 		.ascii	"$\326\313\010\265\017<\345\342\302j\306\016LW\372*\343"
 288      B50F3CE5 
 288      E2C26AC6 
 288      0E4C57FA 
 288      2AE3
 289 02de 8A118A31 		.ascii	"\212\021\2121\016B\025\355\221Q\224[(\360=\001\365\302"
 289      0E4215ED 
 289      9151945B 
 289      28F03D01 
 289      F5C2
 290 02f0 42F4AD73 		.ascii	"B\364\255s\344\346\305\205t\216s\017v\356\002\230\324"
 290      E4E6C585 
 290      748E730F 
 290      76EE0298 
 290      D4
 291 0301 3B899FE8 		.ascii	";\211\237\350P\\9\375,*\304\2411\244\325}r\253\371/"
 291      505C39FD 
 291      2C2AC4A1 
 291      31A4D57D 
ARM GAS  C:\Users\zozo\AppData\Local\Temp\ccTOXdkz.s 			page 23


 291      72ABF92F 
 292 0315 5A8F5F1F 		.ascii	"Z\217_\037:\023!:!\344\351$\312Og\264|\366P\024m\371"
 292      3A13213A 
 292      21E4E924 
 292      CA4F67B4 
 292      7CF65014 
 293 032b E88DE3AF 		.ascii	"\350\215\343\257\247\265\243\350\212\024x\342\217=\364"
 293      A7B5A3E8 
 293      8A1478E2 
 293      8F3DF4
 294 033a C4DD887F 		.ascii	"\304\335\210\1771\3704\022\265/\\\246 \004\342\303e"
 294      31F83412 
 294      B52F5CA6 
 294      2004E2C3 
 294      65
 295 034b 7C6489CA 		.ascii	"|d\211\312#\353G\345%\256t\323\033\237\335\275m\257"
 295      23EB47E5 
 295      25AE74D3 
 295      1B9FDDBD 
 295      6DAF
 296 035d 91AE3013 		.ascii	"\221\2560\023)\376\277\243\035\021t\207\337\341\333"
 296      29FEBFA3 
 296      1D117487 
 296      DFE1DB
 297 036c BB05350E 		.ascii	"\273\0055\016\023m\243\351\206?\254\334\027#\345\363"
 297      136DA3E9 
 297      863FACDC 
 297      1723E5F3 
 298 037c 3BA1E469 		.ascii	";\241\344i\322\2469\300\007\015\274i\006\017\015'xq"
 298      D2A639C0 
 298      070DBC69 
 298      060F0D27 
 298      7871
 299 038e 647BFCFC 		.ascii	"d{\374\374\002\262f\314b'\322W\320\372*Y_\203\371\252"
 299      02B266CC 
 299      6227D257 
 299      D0FA2A59 
 299      5F83F9AA 
 300 03a2 0F6DD0E1 		.ascii	"\017m\320\341Z\301HWDH\035\335!u\034T\3528Hu<\235{\363"
 300      5AC14857 
 300      44481DDD 
 300      21751C54 
 300      EA384875 
 301 03ba 9E5174C9 		.ascii	"\236Qt\311u\254\037\351\374\021\211\032%\036n\206\027"
 301      75AC1FE9 
 301      FC11891A 
 301      251E6E86 
 301      17
 302 03cb 0F7E4675 		.ascii	"\017~Fu\257\347\262\333@z\256\212\340\365\234m/t\200"
 302      AFE7B2DB 
 302      407AAE8A 
 302      E0F59C6D 
 302      2F7480
 303 03de 3C8DD8FF 		.ascii	"<\215\330\377ku\023keTju\035\225^u \275\300\201t\003"
 303      6B75136B 
 303      65546A75 
 303      1D955E75 
ARM GAS  C:\Users\zozo\AppData\Local\Temp\ccTOXdkz.s 			page 24


 303      20BDC081 
 304 03f4 D90C05AB 		.ascii	"\331\014\005\253nT\252\316\365\030\253\265\254\353\206"
 304      6E54AACE 
 304      F518ABB5 
 304      ACEB86
 305 0403 21843D3E 		.ascii	"!\204=>g\015\373a\205\3750\261\337\262\333U$\205X7\207"
 305      670DFB61 
 305      85FD30B1 
 305      DFB2DB55 
 305      24855837 
 306 0418 5CB211C5 		.ascii	"\\\262\021\305zD\316\265\355\324#y\026\347S\2723\023"
 306      7A44CEB5 
 306      EDD42379 
 306      16E753BA 
 306      3313
 307 042a 8FFAE561 		.ascii	"\217\372\345a<O\320\214j\223<\252\007&vV\307\206\357"
 307      3C4FD08C 
 307      6A933CAA 
 307      07267656 
 307      C786EF
 308 043d D3B8DAA7 		.ascii	"\323\270\332\2471\271O\331\254\377\271>\330(\240\377"
 308      31B94FD9 
 308      ACFFB93E 
 308      D828A0FF 
 309 044d 08B7D07C 		.ascii	"\010\267\320|\224\314'\250Q\343r\243&\250Q/k\237zbC"
 309      94CC27A8 
 309      51E372A3 
 309      26A8512F 
 309      6B9F7A62 
 310 0462 C8A35E13 		.ascii	"\310\243^\023\301\247\220\367\021y\247\267\2520\202"
 310      C1A790F7 
 310      1179A7B7 
 310      AA3082
 311 0471 A6992330 		.ascii	"\246\231#0\255\237\034\334\334\034\025v\276\334\246"
 311      AD9F1CDC 
 311      DC1C1576 
 311      BEDCA6
 312 0480 F9F2A73A 		.ascii	"\371\362\247:\314\216\262\336QI\354\226;\335\270uhJ"
 312      CC8EB2DE 
 312      5149EC96 
 312      3BDDB875 
 312      684A
 313 0492 87B3A11D 		.ascii	"\207\263\241\035\307\365\301\251u\2059l\017\033\363"
 313      C7F5C1A9 
 313      7585396C 
 313      0F1BF3
 314 04a1 FB5FB770 		.ascii	"\373_\267p/\270\243\231\017w\324\371p\227\346CY\251"
 314      2FB8A399 
 314      0F77D4F9 
 314      7097E643 
 314      59A9
 315 04b3 9701D170 		.ascii	"\227\001\321p\007h<\177\321\220\256e\201/TC\343\036"
 315      07683C7F 
 315      D190AE65 
 315      812F5443 
 315      E31E
 316 04c5 D1985469 		.ascii	"\321\230Ti<\363n\373%Z\274(\323\330\347\037\316\223"
ARM GAS  C:\Users\zozo\AppData\Local\Temp\ccTOXdkz.s 			page 25


 316      3CF36EFB 
 316      255ABC28 
 316      D3D8E71F 
 316      CE93
 317 04d7 9086BB61 		.ascii	"\220\206\273al\322\327mb4\243\332\030\220\027LihL\251"
 317      6CD2D76D 
 317      6234A3DA 
 317      1890174C 
 317      69684CA9 
 318 04eb 34EE8345 		.ascii	"4\356\203E0d\254K\317\\l\\\366\371JK\212\240\347\233"
 318      3064AC4B 
 318      CF5C6C5C 
 318      F6F94A4B 
 318      8AA0E79B 
 319 04ff C465B60D 		.ascii	"\304e\266\015\266\314t\273m\2555mcVf\206muj\332\306"
 319      B6CC74BB 
 319      6DAD356D 
 319      63566686 
 319      6D756ADA 
 320 0514 940FDECE 		.ascii	"\224\017\336\316\330d\337\364\235\355\373\344u\202!"
 320      D864DFF4 
 320      9DEDFBE4 
 320      758221
 321 0523 EBDB0DF6 		.ascii	"\353\333\015\366\305\363>\265}\235\365\21555\0237\326"
 321      C5F33EB5 
 321      7D9DF58D 
 321      35351337 
 321      D6
 322 0534 347B7AA6 		.ascii	"4{z\246]J^\275\226\353\2223\204h\315a|\332\227\326\025"
 322      5D4A5EBD 
 322      96EB9233 
 322      8468CD61 
 322      7CDA97D6 
 323 0549 3F59572E 		.ascii	"?YW.\375b\205l\367F\230\010A;\0142_\343\225\232eOAf"
 323      FD62856C 
 323      F7469808 
 323      413B0C32 
 323      5FE3959A 
 324 0561 D1846E5D 		.ascii	"\321\204n]o\373\301\266\336\3109\274\377\236\201\376"
 324      6FFBC1B6 
 324      DEC839BC 
 324      FF9E81FE 
 325 0571 EAD12023 		.ascii	"\352\321 #\346\223Mv\233u\305F\353\322\264\224\345\313"
 325      E6934D76 
 325      9B75C546 
 325      EBD2B494 
 325      E5CB
 326 0583 FF03DDAB 		.ascii	"\377\003\335\253\347\211"
 326      E789
 327              		.text
 328              		.section	.gnu.lto_.symtab.d9224546,"",%progbits
 329 0000 44656275 		.ascii	"Debug_Print_Start\000\000\000\000\000\000\000\000\000"
 329      675F5072 
 329      696E745F 
 329      53746172 
 329      74000000 
 330 001a 000000BA 		.ascii	"\000\000\000\272\000\000\000Debug_Print\000\000\000"
ARM GAS  C:\Users\zozo\AppData\Local\Temp\ccTOXdkz.s 			page 26


 330      00000044 
 330      65627567 
 330      5F507269 
 330      6E740000 
 331 002f 00000000 		.ascii	"\000\000\000\000\000\000\000\000\000\302\000\000\000"
 331      00000000 
 331      00C20000 
 331      00
 332 003c 53575F54 		.ascii	"SW_Tx_UART_Start\000\000\002\000\000\000\000\000\000"
 332      785F5541 
 332      52545F53 
 332      74617274 
 332      00000200 
 333 0055 000000C5 		.ascii	"\000\000\000\305\000\000\000SW_Tx_UART_PutChar\000\000"
 333      00000053 
 333      575F5478 
 333      5F554152 
 333      545F5075 
 334 0070 02000000 		.ascii	"\002\000\000\000\000\000\000\000\000\000\307\000\000"
 334      00000000 
 334      0000C700 
 334      00
 335 007d 00       		.ascii	"\000"
 336              		.text
 337              		.section	.gnu.lto_.opts,"",%progbits
 338 0000 272D666E 		.ascii	"'-fno-trapv' '-mcpu=cortex-m0' '-mthumb' '-g' '-Os'"
 338      6F2D7472 
 338      61707627 
 338      20272D6D 
 338      6370753D 
 339 0033 20272D66 		.ascii	" '-ffunction-sections' '-flto' '-ffat-lto-objects'\000"
 339      66756E63 
 339      74696F6E 
 339      2D736563 
 339      74696F6E 
 340              		.text
 341              		.cfi_sections	.debug_frame
 342              		.section	.text.Debug_Print_Start,"ax",%progbits
 343              		.align	1
 344              		.global	Debug_Print_Start
 345              		.code	16
 346              		.thumb_func
 347              		.type	Debug_Print_Start, %function
 348              	Debug_Print_Start:
 349              	.LFB39:
 350              		.file 1 ".\\debug.c"
   1:.\debug.c     **** /*****************************************************************************
   2:.\debug.c     **** * File Name: debug.c
   3:.\debug.c     **** *
   4:.\debug.c     **** * Version: 1.0
   5:.\debug.c     **** *
   6:.\debug.c     **** * Description:
   7:.\debug.c     **** * This file contains Debug API functions.
   8:.\debug.c     **** *
   9:.\debug.c     **** * Note:
  10:.\debug.c     **** * Defining ENABLE_DEBUG_PIN in platform.h to enable macro for toggling the debug_pin
  11:.\debug.c     **** * Defining DEBUG_PRINT in platform.h to enable debug print module
ARM GAS  C:\Users\zozo\AppData\Local\Temp\ccTOXdkz.s 			page 27


  12:.\debug.c     **** * Defining SOFTWARE_UART in platform.h to enable debug print over Software Uart 
  13:.\debug.c     **** * else SCB configured as UART is enabled 
  14:.\debug.c     **** *
  15:.\debug.c     **** * Owner: MRAO
  16:.\debug.c     **** *
  17:.\debug.c     **** * Related Document:
  18:.\debug.c     **** * UART component datasheet
  19:.\debug.c     **** *
  20:.\debug.c     **** * Hardware Dependency:
  21:.\debug.c     **** * UART PSoC Creator Component
  22:.\debug.c     **** *
  23:.\debug.c     **** * Code Tested With:
  24:.\debug.c     **** * 1. PSoC Creator 3.1 
  25:.\debug.c     **** * 2. ARM GCC 4.8.4
  26:.\debug.c     **** ******************************************************************************
  27:.\debug.c     **** * Copyright (2015), Cypress Semiconductor Corporation.
  28:.\debug.c     **** ******************************************************************************
  29:.\debug.c     **** * This software is owned by Cypress Semiconductor Corporation (Cypress) and is
  30:.\debug.c     **** * protected by and subject to worldwide patent protection (United States and
  31:.\debug.c     **** * foreign), United States copyright laws and international treaty provisions.
  32:.\debug.c     **** * Cypress hereby grants to licensee a personal, non-exclusive, non-transferable
  33:.\debug.c     **** * license to copy, use, modify, create derivative works of, and compile the
  34:.\debug.c     **** * Cypress Source Code and derivative works for the sole purpose of creating
  35:.\debug.c     **** * custom software in support of licensee product to be used only in conjunction
  36:.\debug.c     **** * with a Cypress integrated circuit as specified in the applicable agreement.
  37:.\debug.c     **** * Any reproduction, modification, translation, compilation, or representation of
  38:.\debug.c     **** * this software except as specified above is prohibited without the express
  39:.\debug.c     **** * written permission of Cypress.
  40:.\debug.c     **** *
  41:.\debug.c     **** * Disclaimer: CYPRESS MAKES NO WARRANTY OF ANY KIND, EXPRESS OR IMPLIED, WITH
  42:.\debug.c     **** * REGARD TO THIS MATERIAL, INCLUDING, BUT NOT LIMITED TO, THE IMPLIED
  43:.\debug.c     **** * WARRANTIES OF MERCHANTABILITY AND FITNESS FOR A PARTICULAR PURPOSE. 
  44:.\debug.c     **** * Cypress reserves the right to make changes without further notice to the
  45:.\debug.c     **** * materials described herein. Cypress does not assume any liability arising out
  46:.\debug.c     **** * of the application or use of any product or circuit described herein. Cypress
  47:.\debug.c     **** * does not authorize its products for use as critical components in life-support
  48:.\debug.c     **** * systems where a malfunction or failure may reasonably be expected to result in
  49:.\debug.c     **** * significant injury to the user. The inclusion of Cypress' product in a life-
  50:.\debug.c     **** * support systems application implies that the manufacturer assumes all risk of
  51:.\debug.c     **** * such use and in doing so indemnifies Cypress against all charges. Use may be
  52:.\debug.c     **** * limited by and subject to the applicable Cypress software license agreement.
  53:.\debug.c     **** *****************************************************************************/
  54:.\debug.c     **** 
  55:.\debug.c     **** #include "debug.h"
  56:.\debug.c     **** 
  57:.\debug.c     **** #ifdef DEBUG_PRINT
  58:.\debug.c     **** 
  59:.\debug.c     **** static uint8 debug_level;
  60:.\debug.c     **** /*****************************************************************************
  61:.\debug.c     **** * Function Name: Putc()
  62:.\debug.c     **** ******************************************************************************
  63:.\debug.c     **** * Summary:
  64:.\debug.c     **** * This function is used to print a character on the UART.
  65:.\debug.c     **** *
  66:.\debug.c     **** * Parameters:
  67:.\debug.c     **** * uint8 ch - character value
  68:.\debug.c     **** *
ARM GAS  C:\Users\zozo\AppData\Local\Temp\ccTOXdkz.s 			page 28


  69:.\debug.c     **** * Return:
  70:.\debug.c     **** * None
  71:.\debug.c     **** *
  72:.\debug.c     **** * Theory:
  73:.\debug.c     **** * Send a character to the uart
  74:.\debug.c     **** *
  75:.\debug.c     **** * Side Effects:
  76:.\debug.c     **** * None 
  77:.\debug.c     **** *
  78:.\debug.c     **** * Note:
  79:.\debug.c     **** * None
  80:.\debug.c     **** *****************************************************************************/
  81:.\debug.c     **** static void Putc(char8 ch)
  82:.\debug.c     **** {
  83:.\debug.c     ****     /*This function has to be replaced by user */
  84:.\debug.c     **** #ifndef SOFTWARE_UART
  85:.\debug.c     ****     Debug_Uart_SpiUartWriteTxData(ch);
  86:.\debug.c     **** #else
  87:.\debug.c     ****     SW_Tx_UART_PutChar(ch);
  88:.\debug.c     **** #endif /* SOFTWARE_UART */
  89:.\debug.c     **** }
  90:.\debug.c     **** 
  91:.\debug.c     **** /*****************************************************************************
  92:.\debug.c     **** * Function Name: Byte_To_ASCII()
  93:.\debug.c     **** ******************************************************************************
  94:.\debug.c     **** * Summary:
  95:.\debug.c     **** * This function is used to map the byte to its ASCII chacter value.
  96:.\debug.c     **** *
  97:.\debug.c     **** * Parameters:
  98:.\debug.c     **** * uint32 index - byte value
  99:.\debug.c     **** *
 100:.\debug.c     **** * Return:
 101:.\debug.c     **** * uint8 * - pointers to the ASCII character value
 102:.\debug.c     **** *
 103:.\debug.c     **** * Theory:
 104:.\debug.c     **** * Converts the byte into ascii character value using look up table method 
 105:.\debug.c     **** *
 106:.\debug.c     **** * Side Effects:
 107:.\debug.c     **** * None 
 108:.\debug.c     **** *
 109:.\debug.c     **** * Note:
 110:.\debug.c     **** * None
 111:.\debug.c     **** *****************************************************************************/
 112:.\debug.c     **** static uint8* Byte_To_ASCII(uint32 Index)
 113:.\debug.c     **** {
 114:.\debug.c     ****     return (uint8*)("0123456789abcdef" + Index);
 115:.\debug.c     **** }
 116:.\debug.c     **** 
 117:.\debug.c     **** /*****************************************************************************
 118:.\debug.c     **** * Function Name: Debug_Print_Start()
 119:.\debug.c     **** ******************************************************************************
 120:.\debug.c     **** * Summary:
 121:.\debug.c     **** * This function is used to initialize debug functionality.
 122:.\debug.c     **** *
 123:.\debug.c     **** * Parameters:
 124:.\debug.c     **** * uint8 level - Level for printing the debug message
 125:.\debug.c     **** *
ARM GAS  C:\Users\zozo\AppData\Local\Temp\ccTOXdkz.s 			page 29


 126:.\debug.c     **** * Return:
 127:.\debug.c     **** * None
 128:.\debug.c     **** *
 129:.\debug.c     **** * Theory:
 130:.\debug.c     **** * Starts the UART component and stores the debug_level for further procecssing
 131:.\debug.c     **** *
 132:.\debug.c     **** * Side Effects:
 133:.\debug.c     **** * debug_level is updated 
 134:.\debug.c     **** *
 135:.\debug.c     **** * Note:
 136:.\debug.c     **** * None
 137:.\debug.c     **** *****************************************************************************/
 138:.\debug.c     **** void Debug_Print_Start(uint8 level)
 139:.\debug.c     **** {
 351              		.loc 1 139 0
 352              		.cfi_startproc
 353              	.LVL0:
 354 0000 10B5     		push	{r4, lr}
 355              		.cfi_def_cfa_offset 8
 356              		.cfi_offset 4, -8
 357              		.cfi_offset 14, -4
 358              		.loc 1 139 0
 359 0002 041C     		mov	r4, r0
 140:.\debug.c     **** #ifndef SOFTWARE_UART
 141:.\debug.c     ****     Debug_Uart_Start();
 142:.\debug.c     **** #else
 143:.\debug.c     **** 
 144:.\debug.c     **** #if(SW_Tx_UART_PIN_STATIC_MODE == 1u)
 145:.\debug.c     **** 				SW_Tx_UART_Start() ;
 360              		.loc 1 145 0
 361 0004 FFF7FEFF 		bl	SW_Tx_UART_Start
 362              	.LVL1:
 146:.\debug.c     **** #else
 147:.\debug.c     **** 				SW_Tx_UART_StartEx(DEBUG_PORT,DEBUG_PIN);
 148:.\debug.c     **** #endif /* (SW_Tx_UART_PIN_STATIC_MODE == 1u) */
 149:.\debug.c     **** 
 150:.\debug.c     **** #endif /* SOFTWARE_UART */
 151:.\debug.c     ****     debug_level = level;
 363              		.loc 1 151 0
 364 0008 014B     		ldr	r3, .L2
 152:.\debug.c     **** }
 365              		.loc 1 152 0
 366              		@ sp needed
 151:.\debug.c     **** }
 367              		.loc 1 151 0
 368 000a 1C70     		strb	r4, [r3]
 369              		.loc 1 152 0
 370 000c 10BD     		pop	{r4, pc}
 371              	.L3:
 372 000e C046     		.align	2
 373              	.L2:
 374 0010 00000000 		.word	.LANCHOR0
 375              		.cfi_endproc
 376              	.LFE39:
 377              		.size	Debug_Print_Start, .-Debug_Print_Start
 378              		.global	__aeabi_uidivmod
 379              		.global	__aeabi_uidiv
ARM GAS  C:\Users\zozo\AppData\Local\Temp\ccTOXdkz.s 			page 30


 380              		.section	.text.Debug_Print,"ax",%progbits
 381              		.align	1
 382              		.global	Debug_Print
 383              		.code	16
 384              		.thumb_func
 385              		.type	Debug_Print, %function
 386              	Debug_Print:
 387              	.LFB40:
 153:.\debug.c     **** 
 154:.\debug.c     **** /*****************************************************************************
 155:.\debug.c     **** * Function Name: Debug_Print()
 156:.\debug.c     **** ******************************************************************************
 157:.\debug.c     **** * Summary:
 158:.\debug.c     **** * This function is used to print the logs on the UART.
 159:.\debug.c     **** *
 160:.\debug.c     **** * Parameters:
 161:.\debug.c     **** * uint8 level - Level of the debug message
 162:.\debug.c     **** * uint8 *pszFmt - Message to be print
 163:.\debug.c     **** *
 164:.\debug.c     **** * Return:
 165:.\debug.c     **** * None
 166:.\debug.c     **** *
 167:.\debug.c     **** * Theory:
 168:.\debug.c     **** * The message will be printed if the level specified is above the debug level 
 169:.\debug.c     **** * set during the Debug_Statt()
 170:.\debug.c     **** *
 171:.\debug.c     **** * Side Effects:
 172:.\debug.c     **** * None
 173:.\debug.c     **** *
 174:.\debug.c     **** * Note:
 175:.\debug.c     **** * None
 176:.\debug.c     **** *****************************************************************************/
 177:.\debug.c     **** void Debug_Print(uint8 level, char8 *pszFmt,...)
 178:.\debug.c     **** {
 388              		.loc 1 178 0
 389              		.cfi_startproc
 390              	.LVL2:
 391 0000 0EB4     		push	{r1, r2, r3}
 392              		.cfi_def_cfa_offset 12
 393 0002 F0B5     		push	{r4, r5, r6, r7, lr}
 394              		.cfi_def_cfa_offset 32
 395              		.cfi_offset 4, -32
 396              		.cfi_offset 5, -28
 397              		.cfi_offset 6, -24
 398              		.cfi_offset 7, -20
 399              		.cfi_offset 14, -16
 179:.\debug.c     ****     uint8 *pszVal;
 180:.\debug.c     ****     uint32 iVal, xVal, i = 0, buffer[12], index = 1;
 181:.\debug.c     ****     uint8 cVal;
 182:.\debug.c     ****     uint32 *pArg;
 183:.\debug.c     **** 		int32 dbuf;
 184:.\debug.c     ****     pArg =(uint32 *)&pszFmt;
 185:.\debug.c     ****     if(level >= debug_level)
 400              		.loc 1 185 0
 401 0004 454B     		ldr	r3, .L29
 178:.\debug.c     ****     uint8 *pszVal;
 402              		.loc 1 178 0
ARM GAS  C:\Users\zozo\AppData\Local\Temp\ccTOXdkz.s 			page 31


 403 0006 8EB0     		sub	sp, sp, #56
 404              		.cfi_def_cfa_offset 88
 405              	.LVL3:
 406              		.loc 1 185 0
 407 0008 1B78     		ldrb	r3, [r3]
 408 000a 0125     		mov	r5, #1
 409 000c 8342     		cmp	r3, r0
 410 000e 00D9     		bls	.LCB51
 411 0010 7FE0     		b	.L4	@long jump
 412              	.LCB51:
 413              	.LVL4:
 414              	.L5:
 186:.\debug.c     ****     {
 187:.\debug.c     ****         while(*pszFmt)
 415              		.loc 1 187 0
 416 0012 139C     		ldr	r4, [sp, #76]
 417 0014 2078     		ldrb	r0, [r4]
 418 0016 0028     		cmp	r0, #0
 419 0018 7BD0     		beq	.L4
 420 001a 661C     		add	r6, r4, #1
 188:.\debug.c     ****         {
 189:.\debug.c     ****             if('%' != *pszFmt)
 421              		.loc 1 189 0
 422 001c 2528     		cmp	r0, #37
 423 001e 03D0     		beq	.L6
 424              	.LVL5:
 425              	.LBB18:
 426              	.LBB19:
  87:.\debug.c     **** #endif /* SOFTWARE_UART */
 427              		.loc 1 87 0
 428 0020 FFF7FEFF 		bl	SW_Tx_UART_PutChar
 429              	.LVL6:
 430              	.LBE19:
 431              	.LBE18:
 190:.\debug.c     ****             {
 191:.\debug.c     ****                 Putc(*pszFmt);
 192:.\debug.c     ****                 pszFmt++;
 432              		.loc 1 192 0
 433 0024 1396     		str	r6, [sp, #76]
 193:.\debug.c     ****                 continue;
 434              		.loc 1 193 0
 435 0026 F4E7     		b	.L5
 436              	.L6:
 194:.\debug.c     ****             }
 195:.\debug.c     ****             pszFmt++;
 196:.\debug.c     **** 
 197:.\debug.c     ****             if(*pszFmt == 's')
 437              		.loc 1 197 0
 438 0028 6378     		ldrb	r3, [r4, #1]
 195:.\debug.c     **** 
 439              		.loc 1 195 0
 440 002a 1396     		str	r6, [sp, #76]
 441              		.loc 1 197 0
 442 002c 732B     		cmp	r3, #115
 443 002e 0BD1     		bne	.L8
 198:.\debug.c     ****             {
 199:.\debug.c     ****                 pszVal = (uint8*)pArg[index++];
ARM GAS  C:\Users\zozo\AppData\Local\Temp\ccTOXdkz.s 			page 32


 444              		.loc 1 199 0
 445 0030 6E1C     		add	r6, r5, #1
 446              	.LVL7:
 447 0032 13AB     		add	r3, sp, #76
 448              	.LVL8:
 449 0034 AD00     		lsl	r5, r5, #2
 450 0036 5D19     		add	r5, r3, r5
 451 0038 2D68     		ldr	r5, [r5]
 452              	.LVL9:
 453              	.L9:
 200:.\debug.c     ****                 for(; *pszVal != '\0'; pszVal++)
 454              		.loc 1 200 0 discriminator 1
 455 003a 2878     		ldrb	r0, [r5]
 456 003c 0028     		cmp	r0, #0
 457 003e 61D0     		beq	.L27
 458              	.LVL10:
 459              	.LBB20:
 460              	.LBB21:
  87:.\debug.c     **** #endif /* SOFTWARE_UART */
 461              		.loc 1 87 0 discriminator 2
 462 0040 FFF7FEFF 		bl	SW_Tx_UART_PutChar
 463              	.LVL11:
 464              	.LBE21:
 465              	.LBE20:
 466              		.loc 1 200 0 discriminator 2
 467 0044 0135     		add	r5, r5, #1
 468              	.LVL12:
 469 0046 F8E7     		b	.L9
 470              	.LVL13:
 471              	.L8:
 201:.\debug.c     ****                     Putc(*pszVal);
 202:.\debug.c     ****                 pszFmt++;
 203:.\debug.c     ****                 continue;
 204:.\debug.c     ****             }
 205:.\debug.c     ****             if(*pszFmt == 'd')
 472              		.loc 1 205 0
 473 0048 642B     		cmp	r3, #100
 474 004a 2AD1     		bne	.L11
 206:.\debug.c     ****             {
 207:.\debug.c     ****             		dbuf = pArg[index++];
 475              		.loc 1 207 0
 476 004c 6B1C     		add	r3, r5, #1
 477 004e 0193     		str	r3, [sp, #4]
 478              	.LVL14:
 479 0050 AD00     		lsl	r5, r5, #2
 480 0052 13AB     		add	r3, sp, #76
 481              	.LVL15:
 482 0054 5D19     		add	r5, r3, r5
 483 0056 2E68     		ldr	r6, [r5]
 484              	.LVL16:
 208:.\debug.c     **** 								if(dbuf<0)
 485              		.loc 1 208 0
 486 0058 002E     		cmp	r6, #0
 487 005a 03DA     		bge	.L12
 488              	.LVL17:
 489              	.LBB22:
 490              	.LBB23:
ARM GAS  C:\Users\zozo\AppData\Local\Temp\ccTOXdkz.s 			page 33


  87:.\debug.c     **** #endif /* SOFTWARE_UART */
 491              		.loc 1 87 0
 492 005c 2D20     		mov	r0, #45
 493 005e FFF7FEFF 		bl	SW_Tx_UART_PutChar
 494              	.LVL18:
 495              	.LBE23:
 496              	.LBE22:
 209:.\debug.c     **** 									{
 210:.\debug.c     **** 										Putc('-');
 211:.\debug.c     **** 										iVal = -dbuf;
 497              		.loc 1 211 0
 498 0062 7642     		neg	r6, r6
 499              	.LVL19:
 500              	.L12:
 178:.\debug.c     ****     uint8 *pszVal;
 501              		.loc 1 178 0 discriminator 1
 502 0064 0025     		mov	r5, #0
 503              	.L13:
 504              	.LVL20:
 212:.\debug.c     **** 									}
 213:.\debug.c     **** 								else
 214:.\debug.c     **** 									iVal = dbuf;
 215:.\debug.c     ****                 //iVal = pArg[index++];
 216:.\debug.c     ****                 i = 0;
 217:.\debug.c     ****                 do{
 218:.\debug.c     ****                     buffer[i++] = iVal % 10;
 505              		.loc 1 218 0 discriminator 1
 506 0066 0135     		add	r5, r5, #1
 507              	.LVL21:
 508 0068 AF00     		lsl	r7, r5, #2
 509 006a 02AB     		add	r3, sp, #8
 510 006c 301C     		mov	r0, r6
 511 006e 043F     		sub	r7, r7, #4
 512 0070 0A21     		mov	r1, #10
 513 0072 FF18     		add	r7, r7, r3
 514 0074 FFF7FEFF 		bl	__aeabi_uidivmod
 515              	.LVL22:
 219:.\debug.c     ****                     iVal /= 10;
 516              		.loc 1 219 0 discriminator 1
 517 0078 301C     		mov	r0, r6
 218:.\debug.c     ****                     iVal /= 10;
 518              		.loc 1 218 0 discriminator 1
 519 007a 3960     		str	r1, [r7]
 520              		.loc 1 219 0 discriminator 1
 521 007c 0A21     		mov	r1, #10
 522 007e FFF7FEFF 		bl	__aeabi_uidiv
 523              	.LVL23:
 524 0082 061E     		sub	r6, r0, #0
 525              	.LVL24:
 220:.\debug.c     ****                 }while(iVal);
 526              		.loc 1 220 0 discriminator 1
 527 0084 EFD1     		bne	.L13
 528              	.LVL25:
 529              	.L14:
 221:.\debug.c     ****                 while(i > 0)
 222:.\debug.c     ****                 {
 223:.\debug.c     ****                     i--;
ARM GAS  C:\Users\zozo\AppData\Local\Temp\ccTOXdkz.s 			page 34


 530              		.loc 1 223 0
 531 0086 013D     		sub	r5, r5, #1
 532              	.LVL26:
 224:.\debug.c     ****                     Putc(*Byte_To_ASCII(buffer[i]));
 533              		.loc 1 224 0
 534 0088 02AA     		add	r2, sp, #8
 535 008a AB00     		lsl	r3, r5, #2
 536 008c D358     		ldr	r3, [r2, r3]
 537              	.LBB24:
 538              	.LBB25:
  87:.\debug.c     **** #endif /* SOFTWARE_UART */
 539              		.loc 1 87 0
 540 008e 244A     		ldr	r2, .L29+4
 541 0090 D05C     		ldrb	r0, [r2, r3]
 542 0092 FFF7FEFF 		bl	SW_Tx_UART_PutChar
 543              	.LVL27:
 544              	.LBE25:
 545              	.LBE24:
 221:.\debug.c     ****                 while(i > 0)
 546              		.loc 1 221 0
 547 0096 002D     		cmp	r5, #0
 548 0098 F5D1     		bne	.L14
 225:.\debug.c     ****                 }
 226:.\debug.c     ****                 pszFmt++;
 549              		.loc 1 226 0
 550 009a 0234     		add	r4, r4, #2
 551 009c 1394     		str	r4, [sp, #76]
 207:.\debug.c     **** 								if(dbuf<0)
 552              		.loc 1 207 0
 553 009e 019D     		ldr	r5, [sp, #4]
 554              	.LVL28:
 227:.\debug.c     ****                 continue;
 555              		.loc 1 227 0
 556 00a0 B7E7     		b	.L5
 557              	.LVL29:
 558              	.L11:
 228:.\debug.c     ****             }
 229:.\debug.c     ****             if(*pszFmt == 'c')
 559              		.loc 1 229 0
 560 00a2 632B     		cmp	r3, #99
 561 00a4 08D1     		bne	.L15
 230:.\debug.c     ****             {
 231:.\debug.c     ****                 cVal = pArg[index++];
 562              		.loc 1 231 0
 563 00a6 6E1C     		add	r6, r5, #1
 564              	.LVL30:
 565 00a8 13AB     		add	r3, sp, #76
 566              	.LVL31:
 567 00aa AD00     		lsl	r5, r5, #2
 568              	.LVL32:
 569 00ac 5D19     		add	r5, r3, r5
 570 00ae 2868     		ldr	r0, [r5]
 571              	.LBB26:
 572              	.LBB27:
  87:.\debug.c     **** #endif /* SOFTWARE_UART */
 573              		.loc 1 87 0
 574 00b0 C0B2     		uxtb	r0, r0
ARM GAS  C:\Users\zozo\AppData\Local\Temp\ccTOXdkz.s 			page 35


 575 00b2 FFF7FEFF 		bl	SW_Tx_UART_PutChar
 576              	.LVL33:
 577 00b6 25E0     		b	.L27
 578              	.LVL34:
 579              	.L15:
 580              	.LBE27:
 581              	.LBE26:
 232:.\debug.c     ****                 Putc(cVal);
 233:.\debug.c     ****                 pszFmt++;
 234:.\debug.c     ****                 continue;
 235:.\debug.c     ****             }
 236:.\debug.c     ****             if(*pszFmt == 'x')
 582              		.loc 1 236 0
 583 00b8 782B     		cmp	r3, #120
 584 00ba 27D1     		bne	.L16
 237:.\debug.c     ****             {
 238:.\debug.c     ****                 xVal = pArg[index++];
 585              		.loc 1 238 0
 586 00bc 13AB     		add	r3, sp, #76
 587              	.LVL35:
 588 00be 6E1C     		add	r6, r5, #1
 589              	.LVL36:
 590 00c0 AD00     		lsl	r5, r5, #2
 591 00c2 5D19     		add	r5, r3, r5
 592 00c4 2B68     		ldr	r3, [r5]
 593              	.LVL37:
 239:.\debug.c     ****                 i = 0;
 594              		.loc 1 239 0
 595 00c6 0025     		mov	r5, #0
 596              	.LVL38:
 597              	.L17:
 240:.\debug.c     ****                 do{
 241:.\debug.c     ****                     buffer[i++] = xVal % 16;
 598              		.loc 1 241 0 discriminator 1
 599 00c8 0F21     		mov	r1, #15
 600 00ca 0135     		add	r5, r5, #1
 601              	.LVL39:
 602 00cc AA00     		lsl	r2, r5, #2
 603 00ce 1940     		and	r1, r3
 604 00d0 043A     		sub	r2, r2, #4
 605 00d2 02A8     		add	r0, sp, #8
 606 00d4 8150     		str	r1, [r0, r2]
 242:.\debug.c     ****                     xVal /= 16;
 607              		.loc 1 242 0 discriminator 1
 608 00d6 1B09     		lsr	r3, r3, #4
 609              	.LVL40:
 243:.\debug.c     ****                 }while(xVal);
 610              		.loc 1 243 0 discriminator 1
 611 00d8 F6D1     		bne	.L17
 241:.\debug.c     ****                     xVal /= 16;
 612              		.loc 1 241 0
 613 00da 2A1C     		mov	r2, r5
 244:.\debug.c     ****                 if(i%2!=0)
 614              		.loc 1 244 0
 615 00dc E907     		lsl	r1, r5, #31
 616 00de 03D5     		bpl	.L18
 245:.\debug.c     ****                     buffer[i++]=0;
ARM GAS  C:\Users\zozo\AppData\Local\Temp\ccTOXdkz.s 			page 36


 617              		.loc 1 245 0
 618 00e0 9200     		lsl	r2, r2, #2
 619 00e2 0135     		add	r5, r5, #1
 620              	.LVL41:
 621 00e4 1350     		str	r3, [r2, r0]
 622 00e6 03E0     		b	.L20
 623              	.LVL42:
 624              	.L18:
 246:.\debug.c     ****                 if(i<2)
 625              		.loc 1 246 0
 626 00e8 012D     		cmp	r5, #1
 627 00ea 01D1     		bne	.L20
 628              	.LVL43:
 247:.\debug.c     ****                     buffer[i++]=0;
 629              		.loc 1 247 0
 630 00ec 0393     		str	r3, [sp, #12]
 631 00ee 0135     		add	r5, r5, #1
 632              	.LVL44:
 633              	.L20:
 248:.\debug.c     **** 
 249:.\debug.c     ****                 while(i > 0)
 250:.\debug.c     ****                 {
 251:.\debug.c     ****                     i--;
 634              		.loc 1 251 0
 635 00f0 013D     		sub	r5, r5, #1
 636              	.LVL45:
 252:.\debug.c     ****                     Putc(*Byte_To_ASCII(buffer[i]));
 637              		.loc 1 252 0
 638 00f2 02AA     		add	r2, sp, #8
 639 00f4 AB00     		lsl	r3, r5, #2
 640 00f6 D358     		ldr	r3, [r2, r3]
 641              	.LBB28:
 642              	.LBB29:
  87:.\debug.c     **** #endif /* SOFTWARE_UART */
 643              		.loc 1 87 0
 644 00f8 094A     		ldr	r2, .L29+4
 645 00fa D05C     		ldrb	r0, [r2, r3]
 646 00fc FFF7FEFF 		bl	SW_Tx_UART_PutChar
 647              	.LVL46:
 648              	.LBE29:
 649              	.LBE28:
 249:.\debug.c     ****                 {
 650              		.loc 1 249 0
 651 0100 002D     		cmp	r5, #0
 652 0102 F5D1     		bne	.L20
 653              	.LVL47:
 654              	.L27:
 253:.\debug.c     ****                 }
 254:.\debug.c     ****                 pszFmt++;
 655              		.loc 1 254 0
 656 0104 0234     		add	r4, r4, #2
 657 0106 1394     		str	r4, [sp, #76]
 238:.\debug.c     ****                 i = 0;
 658              		.loc 1 238 0
 659 0108 351C     		mov	r5, r6
 255:.\debug.c     ****                 continue;
 660              		.loc 1 255 0
ARM GAS  C:\Users\zozo\AppData\Local\Temp\ccTOXdkz.s 			page 37


 661 010a 82E7     		b	.L5
 662              	.LVL48:
 663              	.L16:
 256:.\debug.c     ****             }
 257:.\debug.c     ****             if(pszFmt == '\0')
 664              		.loc 1 257 0
 665 010c 002E     		cmp	r6, #0
 666 010e 00D0     		beq	.LCB347
 667 0110 7FE7     		b	.L5	@long jump
 668              	.LCB347:
 669              	.LVL49:
 670              	.L4:
 258:.\debug.c     ****             {
 259:.\debug.c     ****                 break;
 260:.\debug.c     ****             }
 261:.\debug.c     ****         }
 262:.\debug.c     ****     }
 263:.\debug.c     **** }
 671              		.loc 1 263 0
 672 0112 0EB0     		add	sp, sp, #56
 673              		@ sp needed
 674 0114 F0BC     		pop	{r4, r5, r6, r7}
 675 0116 08BC     		pop	{r3}
 676 0118 03B0     		add	sp, sp, #12
 677 011a 1847     		bx	r3
 678              	.L30:
 679              		.align	2
 680              	.L29:
 681 011c 00000000 		.word	.LANCHOR0
 682 0120 00000000 		.word	.LC5
 683              		.cfi_endproc
 684              	.LFE40:
 685              		.size	Debug_Print, .-Debug_Print
 686              		.section	.rodata.str1.1,"aMS",%progbits,1
 687              	.LC5:
 688 0000 30313233 		.ascii	"0123456789abcdef\000"
 688      34353637 
 688      38396162 
 688      63646566 
 688      00
 689              		.bss
 690              		.set	.LANCHOR0,. + 0
 691              		.type	debug_level, %object
 692              		.size	debug_level, 1
 693              	debug_level:
 694 0000 00       		.space	1
 695              		.text
 696              	.Letext0:
 697              		.file 2 "Generated_Source\\PSoC4/cytypes.h"
 698              		.file 3 "Generated_Source\\PSoC4/BLE_Stack.h"
 699              		.file 4 "Generated_Source\\PSoC4/BLE_dis.h"
 700              		.file 5 "Generated_Source\\PSoC4/SW_Tx_UART.h"