ARM GAS  C:\Users\zozo\AppData\Local\Temp\ccwroZif.s 			page 1


   1              		.cpu cortex-m0
   2              		.fpu softvfp
   3              		.eabi_attribute 20, 1
   4              		.eabi_attribute 21, 1
   5              		.eabi_attribute 23, 3
   6              		.eabi_attribute 24, 1
   7              		.eabi_attribute 25, 1
   8              		.eabi_attribute 26, 1
   9              		.eabi_attribute 30, 4
  10              		.eabi_attribute 34, 0
  11              		.eabi_attribute 18, 4
  12              		.code	16
  13              		.file	"SW_Tx_UART.c"
  14              		.text
  15              	.Ltext0:
  16              		.section	.gnu.lto_.profile.d922703d,"",%progbits
  17 0000 789C6366 		.ascii	"x\234cf```a\200\000F\2062u\000\001\207\000\246"
  17      60606061 
  17      80004686 
  17      32750001 
  17      8700A6
  18              		.text
  19              		.section	.gnu.lto_.jmpfuncs.d922703d,"",%progbits
  20 0000 789C6366 		.ascii	"x\234cf\300\016\342\2414;\0203200122\326\003if \203"
  20      C00EE2A1 
  20      343B1033 
  20      32303031 
  20      3232D603 
  21 0018 B91EC462 		.ascii	"\271\036\304b\201\212\000\021\033\202\011T\316\310\364"
  21      818A0011 
  21      1B820954 
  21      CEC8F4
  22 0027 9189B1E9 		.ascii	"\221\211\261\351\364\221\313L/\230~21p10.g\224\202\210"
  22      F491CB4C 
  22      2F987E32 
  22      31703130 
  22      2E679482 
  23 003c 9EDBBDE1 		.ascii	"\236\333\275\34117X\224\227\201q\005P\224\001\0007\240"
  23      31375894 
  23      97817105 
  23      50940100 
  23      37A0
  24 004e 1075     		.ascii	"\020u"
  25              		.text
  26              		.section	.gnu.lto_.inline.d922703d,"",%progbits
  27 0000 789C6D8E 		.ascii	"x\234m\216\301\011\2000\014E\177\332\320\212=xU\020"
  27      C1098030 
  27      0C457FDA 
  27      D08A3D78 
  27      5510
  28 0012 BA91B379 		.ascii	"\272\221\263y\362\334\223N\340\036.!8\206\215F\024\365"
  28      F2DC934E 
  28      E01E2E21 
  28      38868D46 
  28      14F5
  29 0024 1FF243FE 		.ascii	"\037\362C\376#\211\305\277Vu\017XC0\271u)\212\201>\023"
  29      2389C5BF 
ARM GAS  C:\Users\zozo\AppData\Local\Temp\ccwroZif.s 			page 2


  29      56750F58 
  29      4330B975 
  29      298A813E 
  30 0039 83301191 		.ascii	"\2030\021\221$\340r\230\335\231\320\346\371\254\007"
  30      24E07298 
  30      DD99D0E6 
  30      F9AC07
  31 0048 1432D077 		.ascii	"\0242\320w\026\345H\242<\271Q\276\001Fh\217]\260\234"
  31      16E548A2 
  31      3CB951BE 
  31      0146688F 
  31      5DB09C
  32 005b A2C6290A 		.ascii	"\242\306)\012\301\231\2010j\016E\243\350\365\215Y*\275"
  32      C1998130 
  32      6A0E45A3 
  32      E8F58D59 
  32      2ABD
  33 006d F6043D7C 		.ascii	"\366\004=|\375zY\002\255\330\0015\317\025/"
  33      FD7A5902 
  33      ADD80135 
  33      CF152F
  34              		.text
  35              		.section	.gnu.lto_.pureconst.d922703d,"",%progbits
  36 0000 789C6366 		.ascii	"x\234cf``\340g\200\000v\006\006F\006&KfI\026\0116\011"
  36      6060E067 
  36      80007606 
  36      06460626 
  36      4B664916 
  37 0017 76090006 		.ascii	"v\011\000\006,\000\313"
  37      2C00CB
  38              		.text
  39              		.section	.gnu.lto_SW_Tx_UART_Start.d922703d,"",%progbits
  40 0000 789C6366 		.ascii	"x\234cf\300\004R@\\\002\304\032@\314\310\314\300\310"
  40      C0045240 
  40      5C02C41A 
  40      40CCC8CC 
  40      C0C8
  41 0012 34E11C03 		.ascii	"4\341\034\003C#\007\023##\210\301\300\310P\317\304X"
  41      43230713 
  41      232388C1 
  41      C0C850CF 
  41      C458
  42 0024 CFF892E9 		.ascii	"\317\370\222\351#\023\343\204\003\253gp\253/mhh\370"
  42      2313E384 
  42      03AB6770 
  42      AB2F6D68 
  42      68F8
  43 0036 70E92C5B 		.ascii	"p\351,[\253\304O&\006\206\317L\020c\030\2273\2523\000"
  43      ABC44F26 
  43      0686CF4C 
  43      10631897 
  43      33AA3300 
  44 004a D57C6CF9 		.ascii	"\325|l\371{\235\233\255\005\250F\000\"\307\270\202\221"
  44      7B9D9BAD 
  44      05A84600 
  44      22C7B882 
  44      91
ARM GAS  C:\Users\zozo\AppData\Local\Temp\ccwroZif.s 			page 3


  45 005b 8D1148AF 		.ascii	"\215\021H\257\027:\320\360\377\377\346\355G?0\002\205"
  45      173AD0F0 
  45      FFFFE6ED 
  45      473F3002 
  45      85
  46 006c 9F0031C8 		.ascii	"\237\0001\310\374\247LL \232\371\036##H!\310\244'L\214"
  46      FCA74C4C 
  46      209AF91E 
  46      23234821 
  46      C8A4274C 
  47 0081 2021A002 		.ascii	" !\240\0025\275\030\367\324\274\324\242\304\222\324"
  47      35BD18F7 
  47      D4BCD4A2 
  47      C492D4
  48 0090 94F8E0FC 		.ascii	"\224\370\340\374\322\242\344\324\230\200\340|g\223\230"
  48      D2A2E4D4 
  48      9880E07C 
  48      679398
  49 009f E0F0F890 		.ascii	"\340\360\370\220\212\370P\307\240\020\275d\006\000^"
  49      8AF850C7 
  49      A010BD64 
  49      06005E
  50 00ae CE36A7   		.ascii	"\3166\247"
  51              		.text
  52              		.section	.gnu.lto_SW_Tx_UART_Stop.d922703d,"",%progbits
  53 0000 789C6366 		.ascii	"x\234cf\300\004R@\\\012\304\032@\314\310\314\300\310"
  53      C0045240 
  53      5C0AC41A 
  53      40CCC8CC 
  53      C0C8
  54 0012 34E11C03 		.ascii	"4\341\034\003C#\007\023##\210\301\300\310P\317\304X"
  54      43230713 
  54      232388C1 
  54      C0C850CF 
  54      C458
  55 0024 CFF892E9 		.ascii	"\317\370\222\351#\023\343\204\003\253gp\253/mhh\370"
  55      2313E384 
  55      03AB6770 
  55      AB2F6D68 
  55      68F8
  56 0036 3069BF44 		.ascii	"0i\277D\253\304O&\006\206\317L\020c\030\2273\2523\000"
  56      ABC44F26 
  56      0686CF4C 
  56      10631897 
  56      33AA3300 
  57 004a D57C6CF9 		.ascii	"\325|l\371{\235\233\255\005\250F\000\"\307\270\202\221"
  57      7B9D9BAD 
  57      05A84600 
  57      22C7B882 
  57      91
  58 005b 8D1148AF 		.ascii	"\215\021H\257\027:\320\360\377\377\346\277\023;\354"
  58      173AD0F0 
  58      FFFFE6BF 
  58      133BEC
  59 006a 1981E24F 		.ascii	"\031\201\342O\200\030d\301S&&\020\315|\217\221\021\244"
  59      801864C1 
  59      53262610 
ARM GAS  C:\Users\zozo\AppData\Local\Temp\ccwroZif.s 			page 4


  59      CD7C8F91 
  59      11A4
  60 007c 1264D413 		.ascii	"\022d\324\023&F\220\020P\201\232^\214{j^jQbIjJ|p~iQ"
  60      26469010 
  60      50819A5E 
  60      8C7B6A5E 
  60      6A516249 
  61 0097 726A4C40 		.ascii	"rjL@p\276\263ILpx|HE|\250cP\210^2\003\000X\0246U"
  61      70BEB349 
  61      4C70787C 
  61      48457CA8 
  61      6350885E 
  62              		.text
  63              		.section	.gnu.lto_SW_Tx_UART_PutString.d922703d,"",%progbits
  64 0000 789C6D52 		.ascii	"x\234mR]HTA\024\236s\346\336\273w\367*IO\262/\005bb"
  64      5D485441 
  64      149E73E6 
  64      DEBB77F7 
  64      2A494FB2 
  65 0018 94440411 		.ascii	"\224D\004\021\364PHD=Ek\324\203 \241K\004\261\302\246"
  65      F4504844 
  65      3D456BD4 
  65      8320A14B 
  65      04B1C2A6 
  66 002c E08B38AB 		.ascii	"\340\2138\253\333\017\266\210H\301R\230E\245\246\245"
  66      DB0FB688 
  66      48C15298 
  66      45A5A6A5 
  67 003c A6195450 		.ascii	"\246\031TP\233\017\025Q\231\311*Y\250\017\256&\025$"
  67      9B0F1551 
  67      99C92A59 
  67      A80FAE26 
  67      1524
  68 004e 96DBA2B6 		.ascii	"\226\333\242\266\235\231\321\202\352\302e\346\234\371"
  68      9D99D182 
  68      EAC265E6 
  68      9CF9
  69 005c CE77BEF3 		.ascii	"\316w\276\363\315p\366\357\267\207\376\255\234\261B"
  69      CD70F6EF 
  69      B787FEAD 
  69      9CB142
  70 006b 5AC16280 		.ascii	"Z\301b\200\215\257\031\013\331\010\206\336p\275yb\033"
  70      8DAF190B 
  70      D90886DE 
  70      70BD7962 
  70      1B
  71 007c C823CF18 		.ascii	"\310#\317\030\023\0363\354b\"\303\004\220y\006\254\006"
  71      131E33EC 
  71      6222C304 
  71      907906AC 
  71      06
  72 008d B961420D 		.ascii	"\271aB\015\032\232p\026\347\020\032c\235Q'\357\206\020"
  72      1A9A7016 
  72      E7101A63 
  72      9D5127EF 
  72      8610
  73 009f E2EBDBE1 		.ascii	"\342\353\333\341\354S\331)dl\0365\000\332 \217 m\003"
ARM GAS  C:\Users\zozo\AppData\Local\Temp\ccwroZif.s 			page 5


  73      EC53D929 
  73      646C1E35 
  73      00DA208F 
  73      206D03
  74 00b2 B3E71C9E 		.ascii	"\263\347\034\236\017\214\366\367\273\276\275r>b\012"
  74      0F8CF6F7 
  74      BBBEBD72 
  74      3E620A
  75 00c1 61BD0C1F 		.ascii	"a\275\014\0374=\217Z2$N\012\247\332\232\347\254\334"
  75      343D8F5A 
  75      32244E0A 
  75      A7DA9AE7 
  75      ACDC
  76 00d3 6B42D4C6 		.ascii	"kB\324\306\006{\305.#\205\034\332\201\023\037\334\004"
  76      067BC52E 
  76      23851CDA 
  76      81131FDC 
  76      04
  77 00e4 2F748097 		.ascii	"/t\200\227Q\212A'\344J\370\033\361i9\223oQ\304-33\021"
  77      518A4127 
  77      E44AF81B 
  77      F1693993 
  77      6F51C42D 
  78 00fb 4FCE552A 		.ascii	"O\316U*\235lI<uDT\204'\323\351u)4\340\226f\330\344\205"
  78      9D6C493C 
  78      75445484 
  78      27D3E975 
  78      2934E096 
  79 0113 7CEF8A17 		.ascii	"|\357\212\027T\320\372\250a\002\370NU\274\370\375\374"
  79      54D0FAA8 
  79      6102F84E 
  79      55BCF8FD 
  79      FC
  80 0124 A8A98AAF 		.ascii	"\250\251\212\257\264'\314\337\245&t\375\267t.\274<\352"
  80      B427CCDF 
  80      A52674FD 
  80      B7742EBC 
  80      3CEA
  81 0136 58619A39 		.ascii	"Xa\2329\013nC\016tC\216\236\031z\300\002\306p5\333\275"
  81      0B6E430E 
  81      74438E9E 
  81      197AC002 
  81      C67035DB 
  82 014b 3626D2E9 		.ascii	"6&\322\351\276\301\246\366\002\314\000&\323\304F\007"
  82      BEC1A6F6 
  82      02CC0026 
  82      D3C44607 
  83 015b E429CD60 		.ascii	"\344)\315`\251\275M3\241[\016\346Q\261\243p\214M\021"
  83      A9BD4D33 
  83      A15B0EE6 
  83      51B1A370 
  83      8C4D11
  84 016e 235D4002 		.ascii	"#]@\002\221\026>\002\265\261\307/2U\007:&\025C\027["
  84      91163E02 
  84      B5B1C72F 
  84      3255073A 
  84      26154317 
ARM GAS  C:\Users\zozo\AppData\Local\Temp\ccwroZif.s 			page 6


  85 0183 EBD648EF 		.ascii	"\353\326H\357\014b\276C\326\214A\355B\375\300F\011I"
  85      0C62BE43 
  85      D68C41ED 
  85      42FDC046 
  85      0949
  86 0195 A2458889 		.ascii	"\242E\210\211\251\301![\"\270\222\335\377\243\345Kf"
  86      A9C1215B 
  86      22B892DD 
  86      FFA3E54B 
  86      66
  87 01a6 335C0A09 		.ascii	"3\\\012\011\021\333\234B\002\231\320Ku\014\372\240\031"
  87      11DB9C42 
  87      0299D04B 
  87      750CFAA0 
  87      19
  88 01b7 187510DB 		.ascii	"\030u\020\333\025?\211 \002\232'A\225\364\024\370\007"
  88      153F8920 
  88      029A2741 
  88      95F414F8 
  88      07
  89 01c8 08C7DEBF 		.ascii	"\010\307\336\277\310\220\207\222\350\362pC\027V/\212"
  89      C8908792 
  89      E8F27043 
  89      17562F8A 
  90 01d8 B3C24EA1 		.ascii	"\263\302N\241k\036id\270\013\325,\211\324\313\226:\306"
  90      6B1E6964 
  90      B80BD52C 
  90      89D4CB96 
  90      3AC6
  91 01ea CF2C7404 		.ascii	"\317,t\004\265\020;I\347cP\027\265t\354\246\266I\215"
  91      B5103B49 
  91      E7635017 
  91      B574ECA6 
  91      B6498D
  92 01fd 5AA87F89 		.ascii	"Z\250\177\211:\351\371K\336\016%\317\275\"\257\177U"
  92      3AE9F94B 
  92      DE0E25CF 
  92      BD22AF7F 
  92      55
  93 020e 9EEF8F3C 		.ascii	"\236\357\217<\217\344l:\375\263\343\210fp\250\215ra"
  93      8FE46C3A 
  93      FDB3E388 
  93      6670A88D 
  93      7261
  94 0220 0470D524 		.ascii	"\004p\325$\312\252!\014F\017X:\230\305t12\035(\014\260"
  94      CAAA210C 
  94      460F583A 
  94      98C57431 
  94      321D280C 
  95 0235 3884DFD5 		.ascii	"8\204\337\325u_\360j&\371\252C\255\017#.\351\234\233"
  95      755FF06A 
  95      26F9AA43 
  95      AD0F232E 
  95      E99C9B
  96 0248 DADF0375 		.ascii	"\332\337\003u\367\323\240\032\340\322\360\011\"\346"
  96      F7D3A01A 
  96      E0D2F009 
ARM GAS  C:\Users\zozo\AppData\Local\Temp\ccwroZif.s 			page 7


  96      22E6
  97 0256 4BF11E98 		.ascii	"K\361\036\230\006$\2430\022\247\214\207\177\216_\007"
  97      0624A330 
  97      12A78C87 
  97      7F8E5F07 
  98 0266 EA66CAEB 		.ascii	"\352f\312\353\032\207Pl~\2772\214\311\253\004J\322}"
  98      1A87506C 
  98      7EBF328C 
  98      C9AB044A 
  98      D27D
  99 0278 6E2828DE 		.ascii	"n((\336\353\017\370\203G+\374e%\276\362\312`\251\277"
  99      EB0FF883 
  99      472BFC65 
  99      25BEF2CA 
  99      60A9BF
 100 028b F880AFBC 		.ascii	"\370\200\257\274p[\261\357pIQU\311\241\335\007\213\012"
 100      705BB1EF 
 100      70495155 
 100      C9A1DD07 
 100      8B0A
 101 029d 4A9975B2 		.ascii	"J\231u\262\"x<p\314\321\313\276@\231\277\312UZ\031\014"
 101      22783C70 
 101      CCD1CBBE 
 101      4099BFCA 
 101      555A190C 
 102 02b1 FA0315BF 		.ascii	"\372\003\025\277\000V\366*\251"
 102      0056F62A 
 102      A9
 103              		.text
 104              		.section	.gnu.lto_SW_Tx_UART_PutArray.d922703d,"",%progbits
 105 0000 789C6552 		.ascii	"x\234eRMHTQ\024>\337\275\357\315\217c\214\264\020qS"
 105      4D485451 
 105      143EDFBD 
 105      EFCD8F63 
 105      8CB41071 
 106 0015 20266D6C 		.ascii	" &ml\323\246V\305,\"\334Dc\264\031\030Lg\2530(\350B"
 106      D3A656C5 
 106      2C22DC44 
 106      63B41918 
 106      4C67AB30 
 107 002c BCCE8C12 		.ascii	"\274\316\214\022\025a\263i(,\"\262\037\307\261\306\204"
 107      1561B369 
 107      282C22B2 
 107      1FC7B1C6 
 107      84
 108 003d 8CB069A5 		.ascii	"\214\260i\245\220N\210\244\242\375Hh\031\244$F\323+"
 108      904E88A4 
 108      A2FD4868 
 108      19A42446 
 108      D32B
 109 004f 723AF73D 		.ascii	"r:\367=\203~.\357\275{\317y\347\373\276\363\235\367"
 109      837E2EEF 
 109      BD7BCF79 
 109      E7FBBEF3 
 109      9DF7
 110 0061 24FDBFEA 		.ascii	"$\375\277\352\370N\012\242\000\357p\021D_\236\250\333"
 110      F84E0AA2 
ARM GAS  C:\Users\zozo\AppData\Local\Temp\ccwroZif.s 			page 8


 110      00EF7011 
 110      445F9EA8 
 110      DB
 111 0072 23603807 		.ascii	"#`8\007\351\034\236y\014!/L\020\251\0223\341&Uj\002"
 111      E91C9E79 
 111      0C212F4C 
 111      10A91233 
 111      E126556A 
 112 0087 3A4FA02E 		.ascii	":O\240.!\015\023]\302 \024y\371m\332\217bS\240/7\230"
 112      210D135D 
 112      C2201479 
 112      F96DDA8F 
 112      6253A02F 
 113 009d F2D5DC52 		.ascii	"\362\325\334RJ}\316.U\364TX\254\263%\034]\334F\015\227"
 113      4A7DCE2E 
 113      55F45458 
 113      ACB3251C 
 113      5DDC460D 
 114 00b2 0CE41F8D 		.ascii	"\014\344\037\215A\356\007\361y,\363e\332\267&,\201\275"
 114      41EE07F1 
 114      792CF365 
 114      DAB7262C 
 114      81BD
 115 00c4 3A7C9C9C 		.ascii	":|\234\234L\271t\310\314\034\216\217O\255{\252o*\025"
 115      4CB974C8 
 115      CC1C8E8F 
 115      4FAD7BAA 
 115      6F2A15
 116 00d7 CBE5B3EA 		.ascii	"\313\345\263\352\210a\011\211;\220\314\207\273\250\304"
 116      88610989 
 116      3B90CC87 
 116      BBA8C4
 117 00e6 3D5412A7 		.ascii	"=T\022\247\010\203\250\346\352\017\351\355'\246<`\363"
 117      0883A8E6 
 117      EA0FE9ED 
 117      27A63C60 
 117      F3
 118 00f7 4E7C7A77 		.ascii	"N|zw\331\357 7\034\244\201\364\277H\356~\010\325\272"
 118      D9EF2037 
 118      1CA481F4 
 118      BF48EE7E 
 118      08D5BA
 119 010a FC7C6C7A 		.ascii	"\374|lz[\312C6ti6}\311\254\272\301\320\345\327=\023"
 119      5BCA4336 
 119      7469367D 
 119      C9ACBAC1 
 119      D0E5D73D 
 120 011f A56A5225 		.ascii	"\245jR%\226\213\305=\232!\3637\203\263\030\262\231\370"
 120      968BC53D 
 120      9A21F337 
 120      83B318B2 
 120      99F8
 121 0131 39EF7325 		.ascii	"9\357s%\330t\031\206Q\345\030\306}\270\300\233\316\014"
 121      D8741986 
 121      51E518C6 
 121      7DB8C09B 
 121      CE0C
ARM GAS  C:\Users\zozo\AppData\Local\Temp\ccwroZif.s 			page 9


 122 0143 EFCEA962 		.ascii	"\357\316\251bqd#\271vX\224\200t\312\200\026\347\221"
 122      716423B9 
 122      76589480 
 122      74CA8016 
 122      E791
 123 0155 72F32E6D 		.ascii	"r\363.m\303\315\017\323k\277#Za\006\236\371\252\020"
 123      C3CD0FD3 
 123      6BBF235A 
 123      61069EF9 
 123      AA10
 124 0167 BCC939C4 		.ascii	"\274\3119\304rO\237\227\333\214\374\232\025\337\256"
 124      724F9F97 
 124      DB8CFC9A 
 124      15DFAE
 125 0176 BC98F1E8 		.ascii	"\274\230\361\350A\031\254\360\300\356e\225'\301_K.\""
 125      4119ACF0 
 125      C0EE6595 
 125      27C15F4B 
 125      2E22
 126 0188 9EEACD67 		.ascii	"\236\352\315g\222\320\345\005\301\227Y\020\240E\304"
 126      92D0E505 
 126      C1975910 
 126      A045C4
 127 0197 BE9E9BDA 		.ascii	"\276\236\233\332I\272\377\244\220\266\207\321o\327\327"
 127      49BAFFA4 
 127      90B687D1 
 127      6FD7D7
 128 01a6 77F5E32A 		.ascii	"w\365\343*,\015q!\253I1\202~\320+\030\032\246\253\256"
 128      2C0D7121 
 128      AB493182 
 128      7ED02B18 
 128      1AA6ABAE 
 129 01ba CD5ECC88 		.ascii	"\315^\314\210\316\037\352\254\362X\302\275%\264\301"
 129      CE1FEAAC 
 129      F258C2BD 
 129      25B4C1
 130 01c9 87E824A6 		.ascii	"\207\350$\246\264\204\207E\342\311\336\355\241\357;"
 130      B4848745 
 130      E2C9DEED 
 130      A1EF3B
 131 01d8 325E1666 		.ascii	"2^\026f\320\314\225\201\270\337n\226\255\2172\357\034"
 131      D0CC9581 
 131      B8DF6E96 
 131      AD8F32EF 
 131      1C
 132 01e9 C46F2F5C 		.ascii	"\304o/\\d\367n\020\377Z\332h\0319i\320K$\246\342\345"
 132      64F76E10 
 132      FF5ADA68 
 132      193969D0 
 132      4B24A6E2 
 133 01fe 0E130ADA 		.ascii	"\016\023\012\332)\321{@\333\025\013\354\311+\027\374"
 133      29D17B40 
 133      DB150BEC 
 133      C92B17FC 
 134 020e 8C34F584 		.ascii	"\2144\365\204\336\240;7_gwIzz\340$\217p_m\350X\2449"
 134      DEA03B37 
 134      5F677749 
ARM GAS  C:\Users\zozo\AppData\Local\Temp\ccwroZif.s 			page 10


 134      7A7AE024 
 134      8F705F6D 
 135 0226 126D688D 		.ascii	"\022mh\2154\205\203-m\321\306H\350D\260%p0\024<\035"
 135      3485832D 
 135      6DD1C648 
 135      E844B025 
 135      7030143C 
 136 023b AE6F0F9F 		.ascii	"\256o\017\237:z\262\276\266\221\314\206h\264\241\303"
 136      3A7AB2BE 
 136      B691CC86 
 136      68B4A1C3 
 137 024b 7BA6A335 		.ascii	"{\246\2435\022hikn-\261\343\343\315M\221\366_ \026\371"
 137      1268696B 
 137      6E2DB1E3 
 137      E3CD4D91 
 137      F65F2016 
 138 0260 C5       		.ascii	"\305"
 139              		.text
 140              		.section	.gnu.lto_SW_Tx_UART_PutHexByte.d922703d,"",%progbits
 141 0000 789C8D91 		.ascii	"x\234\215\221\317k\023Q\020\307\347\373^\262\273\335"
 141      CF6B1351 
 141      10C7E7FB 
 141      5EB2BBDD 
 142 0010 1C2C9E4A 		.ascii	"\034,\236J\3565\024\244\001\361\017\360\307AO\"\246"
 142      EE3514A4 
 142      01F10FF0 
 142      C7414F22 
 142      A6
 143 0021 E22510A4 		.ascii	"\342%\020\244\356Q\013%B<\204\276\264\261\344d\203-"
 143      EE510B25 
 143      423C84BE 
 143      B4B1E464 
 143      832D
 144 0033 12100511 		.ascii	"\022\020\005\021\321Z\233T\255\330\366\024\024Q\024"
 144      D15A9B54 
 144      ADD8F614 
 144      145114
 145 0042 1551548A 		.ascii	"\025QT\212D\220\012\026/\306\034\342\"%\316\274\240"
 145      44900A16 
 145      2FC61CE2 
 145      2225CEBC 
 145      A0
 146 0053 A2527061 		.ascii	"\242Rpag\336{\373\235\357\314g\237\246\177\2378\277"
 146      67DE7BFB 
 146      9DEFCC67 
 146      9FA67F9F 
 146      38BF
 147 0065 C715D10E 		.ascii	"\307\025\321\016\316\320\004U~FT\360\024 \013\002\215"
 147      CED00455 
 147      7E4654F0 
 147      14200B02 
 147      8D
 148 0076 298C615D 		.ascii	")\214a]5\025\312\365\271J,q\305\030\363\345C\263\357"
 148      3515CAF5 
 148      B94A2C71 
 148      C518F3E5 
 148      43B3EF
ARM GAS  C:\Users\zozo\AppData\Local\Temp\ccwroZif.s 			page 11


 149 0089 745FC865 		.ascii	"t_\310e-\325\265\301U$Xr\367\376B\311\327\003 ^/v\332"
 149      2DD5B5C1 
 149      55245872 
 149      F7FE42C9 
 149      D703205E 
 150 00a0 9FFDFECB 		.ascii	"\237\375\376\313\306\214\327\037W\315.\204\354y\015"
 150      C68CD71F 
 150      57CD2E84 
 150      EC790D
 151 00af 9A2BB03D 		.ascii	"\232+\260=\216\2018\361\001a\026\375\"n\0267\336\304"
 151      8E8138F1 
 151      016116FD 
 151      226E1637 
 151      DEC4
 152 00c1 9C227BF7 		.ascii	"\234\"{\367n\374\264\305u8\340\304\007\265\255u\323"
 152      6EFCB4C5 
 152      7538E0C4 
 152      07B5AD75 
 152      D3
 153 00d2 E9B41E4E 		.ascii	"\351\264\036N\227\022:\006H\225\342z\2459\350(\207\210"
 153      97123A06 
 153      4895E27A 
 153      A539E828 
 153      8788
 154 00e4 CB21EAC9 		.ascii	"\313!\352\311\312\267\306\264\306\026\202\360Q)\311"
 154      CAB7C6B4 
 154      C61682F0 
 154      5129C9
 155 00f3 7A15138D 		.ascii	"z\025\023\215\311\327\313_!\266m\245\332\334Ta\345\354"
 155      C9D7CB5F 
 155      21B66DA5 
 155      DADC5461 
 155      E5EC
 156 0105 A38AF349 		.ascii	"\243\212\363I\261K\2040\2078\255b\274\341v%\232U\262"
 156      B14B8430 
 156      8738AD62 
 156      BCE17625 
 156      9A55B2
 157 0118 5FB994EC 		.ascii	"_\271\224\354\036D\271\340\334\324\253%\235\377n*\306"
 157      1E44B9E0 
 157      DCD4AB25 
 157      9DFF6E2A 
 157      C6
 158 0129 0B9523B3 		.ascii	"\013\225#\263\312\370\357\327\236\277\360\304\306\261"
 158      CAF8EFD7 
 158      9EBFF0C4 
 158      C6B1
 159 0137 DBD9A999 		.ascii	"\333\331\251\231%\\\300\371BYT.n \217y6\227oo\327KO"
 159      255CC0F9 
 159      4259542E 
 159      6E208F79 
 159      36976F6F 
 160 014e 23C979D3 		.ascii	"#\311y\323\033*\017UVq#\373\007kH\322;\024ML\232\211"
 160      1B2A0F55 
 160      567123FB 
 160      076B48D2 
 160      3B144D4C 
ARM GAS  C:\Users\zozo\AppData\Local\Temp\ccwroZif.s 			page 12


 161 0164 F2E2CB33 		.ascii	"\362\342\3133U\305\255Jb\322\323\022(, O<H\250|\236"
 161      55C5AD4A 
 161      62D2D312 
 161      282C204F 
 161      3C48A87C 
 162 0179 6CE2DB64 		.ascii	"l\342\333d\343\027\220\337\005\252=xr\317\002a\013\341"
 162      E31790DF 
 162      05AA3D78 
 162      72CF0261 
 162      0BE1
 163 018b E69F406E 		.ascii	"\346\237@n\333\226\375\006\3626\005\372\233\340\326"
 163      DB96FD06 
 163      F23605FA 
 163      9BE0D6
 164 019a 6604B72D 		.ascii	"f\004\267-\201k\011\026\377\207\340\216%\360\204\240"
 164      816B0916 
 164      FF87E08E 
 164      25F084A0 
 165 01aa 81427DF9 		.ascii	"\201B}\371\200\025\223\\\030\344\242x\200m\203\351}"
 165      8015935C 
 165      18E4A278 
 165      806D83E9 
 165      7D
 166 01bb C18960F4 		.ascii	"\301\211`\364h68\226I\215\234\034\035\016\322\007S#"
 166      68363896 
 166      498D9C1C 
 166      1D0ED207 
 166      5323
 167 01cd 7B77A653 		.ascii	"{w\246SG2C\271\314\341\335\207\206\006\207\251'\233"
 167      473243B9 
 167      CCE1DD87 
 167      860687A9 
 167      279B
 168 01df DB1FE4F6 		.ascii	"\333\037\344\366\234\312\006?\000\215H\343-"
 168      9CCA063F 
 168      008D48E3 
 168      2D
 169              		.text
 170              		.section	.gnu.lto_SW_Tx_UART_PutHexInt.d922703d,"",%progbits
 171 0000 789C854F 		.ascii	"x\234\205OK(\204Q\030\375\316w\307?\177F\221\225f?d"
 171      4B288451 
 171      18FDCE77 
 171      C73F7F46 
 171      9195663F 
 172 0015 33459616 		.ascii	"3E\226\026d\201\025\031\262\231\2324\376\355LM\243f"
 172      64811519 
 172      B2999A34 
 172      FEED4C4D 
 172      A366
 173 0027 2377BC57 		.ascii	"#w\274WR\362\310B\012y?\312N\026\263\246f\301b$Q\242"
 173      52F2C842 
 173      0A793FCA 
 173      4E16B3A6 
 173      66C16224 
 174 003d C646181A 		.ascii	"\306F\030\032\223\304wg\226\026n\367~\257\316\371\316"
 174      93C47767 
 174      96166EF7 
ARM GAS  C:\Users\zozo\AppData\Local\Temp\ccwroZif.s 			page 13


 174      7EAFCEF9 
 174      CE
 175 004e B98AFE1E 		.ascii	"\271\212\376\036\257\274$\210\032$C\021x6-\003\233\001"
 175      AFBC2488 
 175      1A244311 
 175      78362D03 
 175      9B01
 176 0060 53106884 		.ascii	"S\020h\2041\202'~e\314\246v\227<u\033Z\353\227\267|"
 176      3182277E 
 176      65CCA676 
 176      973C751B 
 176      5AEB97B7 
 177 0075 CD444D81 		.ascii	"\315DM\201\211r\\Z\203M\324\011d\365\344\371\245R\325"
 177      89725C5A 
 177      834DD409 
 177      64F5E4F9 
 177      A552D5
 178 0088 83A43EBF 		.ascii	"\203\244>\277\377\314Ud\271\300\2502\355r\346\361]\231"
 178      FFCC5564 
 178      B9C0A832 
 178      ED72E6F1 
 178      5D99
 179 009a 96D9B4C9 		.ascii	"\226\331\264\311\267\217;\333\267\246\365h\352\354H"
 179      B78F3BDB 
 179      B7A6F568 
 179      EAEC48
 180 00a9 B7C85C61 		.ascii	"\267\310\\a\013J\366a\033^\354\300K2\"\354\302g\340"
 180      0B4AF661 
 180      1B5EECC0 
 180      4B3222EC 
 180      C267E0
 181 00bc AFE3DF19 		.ascii	"\257\343\337\031\2175.\332U%M\354\301\022\333tX\235"
 181      8F352EDA 
 181      55254DEC 
 181      C112DB74 
 181      589D
 182 00ce D23F3FC7 		.ascii	"\322??\307\017s\331Fe\003\006\317\302t)\011e\226\011"
 182      0F73D946 
 182      650306CF 
 182      C2742909 
 182      659609
 183 00e1 440F4230 		.ascii	"D\017B0\277y\024i\311\352\032c\267\223\351\323r\263"
 183      BF791469 
 183      C9EA1A63 
 183      B793E9D3 
 183      72B3
 184 00f3 23CF9C97 		.ascii	"#\317\234\227\365\214\365\371\205\2752\343\317\262\011"
 184      F58CF5F9 
 184      85BD32E3 
 184      CFB209
 185 0102 FB227F8D 		.ascii	"\373\"\177\215\321+w\011\242\004E7p\231\316\270Y\271"
 185      D12B7709 
 185      A2044537 
 185      7099CEB8 
 185      59B9
 186 0114 9C39E0E1 		.ascii	"\2349\340\341/=\255\355\002\273s,Fp\200a\022d\201\355"
 186      2F3DADED 
ARM GAS  C:\Users\zozo\AppData\Local\Temp\ccwroZif.s 			page 14


 186      02BB732C 
 186      46708061 
 186      126481ED 
 187 0128 2273EAA2 		.ascii	"\"s\352\242\271\304\225\213\377\270\207E\256e\270\267"
 187      B9C4958B 
 187      FFB88745 
 187      AE65B8B7 
 188 0138 48A616BB 		.ascii	"H\246\026\273\212`2\316a\034\213\377Z\177\260\335\211"
 188      8A6032CE 
 188      611C8BFF 
 188      5A7FB0DD 
 188      89
 189 0149 38B181B8 		.ascii	"8\261\201\2703\030\012D\207ba'\330\035\210\2665\005"
 189      33180A44 
 189      87626127 
 189      D81D88B6 
 189      3505
 190 015b 03FDA1DE 		.ascii	"\003\375\241\336D\250\257\265\247\327\037&;\236\350"
 190      44A8AFB5 
 190      A7D71F26 
 190      3B9EE8
 191 016a 70129D91 		.ascii	"p\022\235\221\370/\200\206\224\224"
 191      F82F8086 
 191      9494
 192              		.text
 193              		.section	.gnu.lto_SW_Tx_UART_PutCRLF.d922703d,"",%progbits
 194 0000 789C6366 		.ascii	"x\234cf\300\004R@\374\031\2105\200\230\221\231\201\221"
 194      C0045240 
 194      FC198835 
 194      80989199 
 194      8191
 195 0012 69C23906 		.ascii	"i\3029\006\206F\016&FF\020\203\201\221\241\236\211\261"
 195      86460E26 
 195      46461083 
 195      8191A19E 
 195      89B1
 196 0024 9EF125D3 		.ascii	"\236\361%\323G&\306\011\007V\317\340V_\332\320\320\360"
 196      4726C609 
 196      0756CFE0 
 196      565FDAD0 
 196      D0F0
 197 0036 E1D05F89 		.ascii	"\341\320_\211V\211\237L@\255L\020c\030\2273\2523\000"
 197      56899F4C 
 197      40AD4C10 
 197      63189733 
 197      AA3300
 198 0049 D57C6CF9 		.ascii	"\325|l\371{\235\233\255\005\250F\000\"\307\270\202\221"
 198      7B9D9BAD 
 198      05A84600 
 198      22C7B882 
 198      91
 199 005a 8D1148AF 		.ascii	"\215\021H\257\027:\320\360\377\377\347o\223;\354\230"
 199      173AD0F0 
 199      FFFFE76F 
 199      933BEC98 
 200 006a 5918189E 		.ascii	"Y\030\030\236\000\345@\026<eb\002\321\314w\030[\016"
 200      00E54016 
ARM GAS  C:\Users\zozo\AppData\Local\Temp\ccwroZif.s 			page 15


 200      3C656202 
 200      D1CC7718 
 200      5B0E
 201 007c DC3DCF04 		.ascii	"\334=\317\004R\0152f\336\345\276uL\265\277\033:\032"
 201      520D3266 
 201      DEE5BE75 
 201      4CB5BF1B 
 201      3A1A
 202 008e 387E3231 		.ascii	"8~21~f\002\232\300\270\222\261\026$un\367\206\307\334"
 202      7E66029A 
 202      C0B892B1 
 202      1624756E 
 202      F786C7DC 
 203 00a2 2F987E32 		.ascii	"/\230~21\36120\256b\224\372\311\304\314\000\322}\217"
 203      31F13230 
 203      AE6294FA 
 203      C9C4CC00 
 203      D27D8F
 204 00b5 1F9FE6D5 		.ascii	"\037\237\346\325\020\315M\247\217\\f\002k\346b`\\\003"
 204      10CD4DA7 
 204      8F5C6602 
 204      6BE66260 
 204      5C03
 205 00c7 D17C8FB1 		.ascii	"\321|\217\261\361\300G\177\260f\006\220\303\030A\016"
 205      F1C0477F 
 205      B0660690 
 205      C318410E 
 206 00d7 023A4F4D 		.ascii	"\002:OM/\306=5/\265(\261$5%>8\277\264(95& 8\337\331"
 206      2FC63D35 
 206      2FB528B1 
 206      2435253E 
 206      38BFB428 
 207 00f2 2426383C 		.ascii	"$&8<>\244\">\3241(D/\231\001\000/\032e,"
 207      3EA4223E 
 207      D4312844 
 207      2F990100 
 207      2F1A652C 
 208              		.text
 209              		.section	.gnu.lto_.symbol_nodes.d922703d,"",%progbits
 210 0000 789C55CA 		.ascii	"x\234U\312\273\015\002A\014\204\341\261\275/\330\"("
 210      BB0D0241 
 210      0C84E1B1 
 210      BD2FD822 
 210      28
 211 0011 8022E702 		.ascii	"\200\"\347\002DL\005\350@\224BL\007H\0071\022\025\200"
 211      444C05E8 
 211      4094424C 
 211      07480731 
 211      121580
 212 0024 D87B04D8 		.ascii	"\330{\004\330\311\247\337\032\003p\307rj\004\0167\200"
 212      C9A7DF1A 
 212      0370C772 
 212      6A040E37 
 212      80
 213 0035 C4B12FD0 		.ascii	"\304\261/\320@q\035\251\256\023\315uf\370\357X\321+"
 213      40711DA9 
 213      AE13CD75 
ARM GAS  C:\Users\zozo\AppData\Local\Temp\ccwroZif.s 			page 16


 213      66F8EF58 
 213      D12B
 214 0047 4D0BA39B 		.ascii	"M\013\243\233\255\230\334L\345\244D\024\235\200\215"
 214      AD98DC4C 
 214      E5A44414 
 214      9D808D
 215 0056 C89A791E 		.ascii	"\310\232y\036\241\353\012L+v\237\367\326l14\037_\231"
 215      A1EB0A4C 
 215      2B769FF7 
 215      D66C3134 
 215      1F5F99
 216 0069 DCBF3696 		.ascii	"\334\2776\226\002\236C\353\346y\374\347\212\3130{m\342"
 216      029E43EB 
 216      E679FCE7 
 216      8ACB307B 
 216      6DE2
 217 007b 07A64E3A 		.ascii	"\007\246N:\336"
 217      DE
 218              		.text
 219              		.section	.gnu.lto_.refs.d922703d,"",%progbits
 220 0000 789C6366 		.ascii	"x\234cf``\340d\200\000&\026\006Vf\006Vv\006\000\001"
 220      6060E064 
 220      80002616 
 220      06566606 
 220      56760600 
 221 0015 690027   		.ascii	"i\000'"
 222              		.text
 223              		.section	.gnu.lto_.decls.d922703d,"",%progbits
 224 0000 789C8D55 		.ascii	"x\234\215UkLTG\024\276\263wY\330eY|\025\015i\342\032"
 224      6B4C5447 
 224      14BEB377 
 224      59D86559 
 224      7C150D69 
 225 0016 13D22686 		.ascii	"\023\322&\206\024\265\226\376R\304\252m\032C\212\246"
 225      14B596FE 
 225      52C4AA6D 
 225      1A438AA6 
 226 0026 3F6A4229 		.ascii	"?jB)n\212m\012f]\022I\377\014 J-\245\024ky\011.H\004"
 226      6E8A6D0A 
 226      665D1249 
 226      FF0C204A 
 226      2DA5146B 
 227 003f 041179AC 		.ascii	"\004\021y\254 X\236*\272\010\342Z\005E\344\341\003y"
 227      20589E2A 
 227      BA08E25A 
 227      0545E4E1 
 227      0379
 228 0051 B9C04A21 		.ascii	"\271\300J!\032\267gf\356]\356\256\3208\311\331\275s"
 228      1AB76766 
 228      EE5DEEAE 
 228      D038C9D9 
 228      BD73
 229 0063 EE39DF39 		.ascii	"\3569\3379\363}3sy\216\343\2642\216\263\303\370A\311"
 229      F37D3373 
 229      798EE3B4 
 229      328EB3C3 
 229      F841C9
ARM GAS  C:\Users\zozo\AppData\Local\Temp\ccwroZif.s 			page 17


 230 0076 716588E3 		.ascii	"qe\210\343<\300\027\002\006\217\\\011\307\006\361]\000"
 230      3CC01702 
 230      068F5C09 
 230      C706F15D 
 230      00
 231 0087 AB046B01 		.ascii	"\253\004k\001\353\004\263\200\365\202\365\201\365\203"
 231      EB04B380 
 231      F582F581 
 231      F583
 232 0095 C9C146C0 		.ascii	"\311\301F\300\306\301\254`\323\234\363\270 `\206\010"
 232      C6C1AC60 
 232      D39CF3B8 
 232      20608608 
 233 00a5 7324F85C 		.ascii	"s$\370\\G\345\002q\225\013\304\221>TB\234\006L\015\326"
 233      47E50271 
 233      950BC491 
 233      3E54429C 
 233      064C0DD6 
 234 00b9 20F45C07 		.ascii	" \364\\\007V\017f\003\353\002\363\021rdB^\377\002xd"
 234      560F6603 
 234      EB02F311 
 234      7264425E 
 234      FF027864 
 235 00cd 4D4A17BC 		.ascii	"MJ\027\274+`7\204\374V\011\236\210\325\271\010\026\341"
 235      2B603784 
 235      FC56099E 
 235      88D5B908 
 235      16E1
 236 00df C653C02A 		.ascii	"\306S\300*\021\362\277\000\253\001\333\011\366\022\354"
 236      11F2BF00 
 236      AB01DB09 
 236      F612EC
 237 00ee A94B8F22 		.ascii	"\251K\217\"\246E\300$\353\036q\301\355]\240\307n0\255"
 237      A645C024 
 237      EB1E71C1 
 237      ED5DA0C7 
 237      6E30AD
 238 0101 A4862B5E 		.ascii	"\244\206+^\257\200\351:\210nr\001\313&\364)\315\023"
 238      AF80E93A 
 238      886E7201 
 238      CB26F429 
 238      CD13
 239 0113 75751D93 		.ascii	"uu\035\2232t\267\341\350Q\017^\206\310\363\351\214\201"
 239      3274B7E1 
 239      E8510F5E 
 239      86C8F3E9 
 239      8C81
 240 0125 3BAA7567 		.ascii	";\252ug1\306I\270\261\021\315\007\305\235\251Kv\037"
 240      31C649B8 
 240      B111CD07 
 240      C59DA94B 
 240      761F
 241 0137 96211F15 		.ascii	"\226!\037\025\235\246\230\263\232x:\265\223<YO\317\237"
 241      9DA698B3 
 241      9A783AB5 
 241      933C594F 
 241      CF9F
ARM GAS  C:\Users\zozo\AppData\Local\Temp\ccwroZif.s 			page 18


 242 0149 733C52F9 		.ascii	"s<R\371%a\034\217\255i\230_\305\241u\276\350C_\016\225"
 242      25611C8F 
 242      AD69985F 
 242      C5A175BE 
 242      E8435F0E 
 243 015e 223F0843 		.ascii	"\"?\010CEh\035\207\212\221/:\213|\271\002(`=e\265\274"
 243      45681D87 
 243      8A912F3A 
 243      8B7CB902 
 243      28603D65 
 244 0174 8FB11C95 		.ascii	"\217\261\034\225 \025*D<\215\000\242H\0052\210\037*"
 244      20152A44 
 244      3C8D00A2 
 244      48053288 
 244      1F2A
 245 0186 990767A7 		.ascii	"\231\007g\247\325PI\243ZB\012g\335{b#\205\325*\031\231"
 245      D55049A3 
 245      5A420A67 
 245      DD7B6223 
 245      85D52A19 
 246 019b 9AE666CE 		.ascii	"\232\346f\316+V\236\300d$\340%2\024\342\203\316A\221"
 246      2B569EC0 
 246      6424E025 
 246      3214E283 
 246      CE4191
 247 01ae 3228C2A1 		.ascii	"2(\302\241\363h%\374~#gK\260\224Y.{\361\033\350:\333"
 247      F36825FC 
 247      7E23674B 
 247      B094592E 
 247      7BF11BE8 
 248 01c4 8A5F9FF1 		.ascii	"\212_\237\361\326\346\342\362rk\362\351l\257Ll\214\303"
 248      D6E6E2F2 
 248      726BF2E9 
 248      6CAF4C6C 
 248      8CC3
 249 01d6 6FECB016 		.ascii	"o\354\260\026\222\203\312\035\335p\344\231\265s\001"
 249      9283CA1D 
 249      DD70E499 
 249      B57301
 250 01e5 692131E9 		.ascii	"i!1\351\332C\263\232\377\221\202\244\314\\\277\310S"
 250      DA43B39A 
 250      FF9182A4 
 250      CC5CBFC8 
 250      53
 251 01f6 90FEB916 		.ascii	"\220\376\271\026]c<~m\267\363\014\241B\202P!\"TR\204"
 251      5D633C7E 
 251      6DB7F30C 
 251      A1428250 
 251      21225452 
 252 020b B6929C6F 		.ascii	"\266\222\234o\371\237\011\200|\350d\271\311\033\371"
 252      F99F0980 
 252      7CE864B9 
 252      C91BF9
 253 021a F9FAAA0A 		.ascii	"\371\372\252\012(\343[P\015pQ%\304\263\221\001\376\331"
 253      28E35B50 
 253      0D705125 
 253      C4B39101 
ARM GAS  C:\Users\zozo\AppData\Local\Temp\ccwroZif.s 			page 19


 253      FED9
 254 022c CDE4053C 		.ascii	"\315\344\005<z\320\377\005H\256\006\222I.e\371\"\020"
 254      7AD0FF05 
 254      48AE0692 
 254      492E65F9 
 254      2210
 255 023e 600202A0 		.ascii	"`\002\002\240X~|b\237\234\307\210\2124\234\220\334\253"
 255      587E7C62 
 255      9F9CC788 
 255      8A349C90 
 255      DCAB
 256 0250 447E2AC6 		.ascii	"D~*\306~\305]\312~\035d\325\316\263O\360\351X\240\310"
 256      7EC55DCA 
 256      7E1D64D5 
 256      CEB34FF0 
 256      E958A0C8 
 257 0264 A5458A4C 		.ascii	"\245E\212L\237\262\233\224*!!\351\035\022j\313l7=\251"
 257      9FB29B94 
 257      2A2121E9 
 257      1D126ACB 
 257      6C373DA9 
 258 0278 A65A32BD 		.ascii	"\246Z2\275\224\326\226\241\240\232\312\311\264\272-"
 258      94D696A1 
 258      A09ACAC9 
 258      B4BA2D
 259 0287 57A53E46 		.ascii	"W\245>F\320R\023\260\262M\203\352\001\3422d\377MEm@"
 259      D05213B0 
 259      B24D83EA 
 259      01E23264 
 259      FF4D456D 
 260 029c 6A614F16 		.ascii	"jaO\026\034\036\312\367\222\313\230\217\310\014\276"
 260      1C1ECAF7 
 260      92CB988F 
 260      C80CBE
 261 02ab F8919424 		.ascii	"\370\221\224$~\321\015\321D7D#\022vDizN\241\234?B\331"
 261      7ED10DD1 
 261      44374423 
 261      12764469 
 261      7A4EA19C 
 262 02c2 41BD893D 		.ascii	"A\275\211=e\236\240\246\221l\211\302\000\311\226\200"
 262      659EA0A6 
 262      916C89C2 
 262      00C99680 
 263 02d2 2CD42C11 		.ascii	",\324,\021\264Y\024\264\205\012\332\221\225dS-\264\374"
 263      B45914B4 
 263      850ADA91 
 263      9564532D 
 263      B4FC
 264 02e4 85763EC4 		.ascii	"\205v>\304_-\213\313\361rZ`\253\323\002\2578\0268\320"
 264      5F2D8BCB 
 264      F1725A60 
 264      ABD302AF 
 264      381638D0 
 265 02f8 7DAFDE9D 		.ascii	"}\257\336\235\317f\375\211'p\015;\201\217\262\347\012"
 265      CF66FD89 
 265      27700D3B 
 265      818FB2E7 
ARM GAS  C:\Users\zozo\AppData\Local\Temp\ccwroZif.s 			page 20


 265      0A
 266 0309 94744AAE 		.ascii	"\224tJ\256{o\242o]sZ\227\312\241\257\215\235\256\033"
 266      7B6FA26F 
 266      5D735A97 
 266      CAA1AF8D 
 266      9DAE1B
 267 031c 807D755E 		.ascii	"\200}u^\3375RyYy\316Q\033]\207\216\327\010\035_\003"
 267      DF355279 
 267      5979CE51 
 267      1B5D878E 
 267      D7081D5F 
 268 0331 671BEB38 		.ascii	"g\033\3538+\263\007#J4AcD\377\232\363\35279\365A\277"
 268      2BB30723 
 268      4A344163 
 268      44FF9AF3 
 268      EA3739F5 
 269 0347 C88CA8B3 		.ascii	"\310\214\250\263\271\377\371\277\312E\331\277I\331o"
 269      B9FFF9BF 
 269      CA45D9BF 
 269      49D96F
 270 0356 17D9FFC5 		.ascii	"\027\331\377\305\364\240\303\215\317g\253\273z%\365"
 270      F4A0C38D 
 270      CF67ABBB 
 270      7A25F5
 271 0365 B45A607F 		.ascii	"\264Z`\177\310$e\037\262P\207\204\375\016\221\375N\312"
 271      C824651F 
 271      B2508784 
 271      FD0E91FD 
 271      4ECA
 272 0377 7E6A6253 		.ascii	"~jbS*\353\243\304\321[{\372\311f\317E\333\350\242m\334"
 272      2AEBA3C4 
 272      D15B7BFA 
 272      C966CF45 
 272      DBE8A26D 
 273 038c 12DB7876 		.ascii	"\022\333xvbp\326\2157\2616\236\035\311\373C\005m\364"
 273      6270D68D 
 273      37B1369E 
 273      1DC9FB43 
 273      056DF4
 274 039f 971B530A 		.ascii	"\227\033S\012\025E\270\321n\337L\022\320mI\007\267\305"
 274      1545B8D1 
 274      6EDF4C12 
 274      D06D4907 
 274      B7C5
 275 03b1 0E2CB483 		.ascii	"\016,\264\203\234\251\211z%\337\356\254\222\226\251"
 275      9CA9897A 
 275      25DFEEAC 
 275      9296A9
 276 03c0 943E3A5B 		.ascii	"\224>:[\345A\247\344j\000\215^\015\225\025*\034\032"
 276      E541A7E4 
 276      6A008D5E 
 276      0D95152A 
 276      1C1A
 277 03d2 4D318DBA 		.ascii	"M1\215\272\241\363;\363\032i\245\032\301\002\334\212"
 277      A1F33BF3 
 277      1A69A51A 
 277      C102DC8A 
ARM GAS  C:\Users\zozo\AppData\Local\Temp\ccwroZif.s 			page 21


 278 03e2 4023B17F 		.ascii	"@#\261\177t\0174\322\012\032\375\003\316\273L\243\372"
 278      740F34D2 
 278      0A1AFD03 
 278      CEBB4CA3 
 278      FA
 279 03f3 8291094F 		.ascii	"\202\221\011O\312C\267\203\207\241\314\277\3324\213"
 279      CA43B783 
 279      87A1CCBF 
 279      DA348B
 280 0402 F2709FF2 		.ascii	"\362p\237\362\320#\362P\333\332R\253\340-l\031\305\223"
 280      D023F250 
 280      DBDA52AB 
 280      E02D6C19 
 280      C593
 281 0414 95E31EA2 		.ascii	"\225\343\036\242\034/\244r@\026z !\343\201HF/%\2431"
 281      1C2FA472 
 281      40167A20 
 281      21E38148 
 281      462F25A3 
 282 0429 314FC10F 		.ascii	"1O\301\0173\2207\217\033\177\327P\020\343\230\203Lr"
 282      3390378F 
 282      1B7FD750 
 282      10E39883 
 282      4C72
 283 043b 3B3E94E4 		.ascii	";>\224\344?\024\363\373h\376\304\245q\263\027\377\212"
 283      3F14F3FB 
 283      68FEC4A5 
 283      71B317FF 
 283      8A
 284 044c 01BC4CAF 		.ascii	"\001\274L\257\315W\0205pyn\261Emd\020TA\364H\202\361"
 284      CD571035 
 284      70796EB1 
 284      456D6410 
 284      5441F448 
 285 0462 48C4E8A7 		.ascii	"H\304\350\247\030U\015\225S\354\223\221Daf\007\247n"
 285      18550D95 
 285      53EC9391 
 285      44616607 
 285      A76E
 286 0474 B26FC652 		.ascii	"\262o\306RN\362EQ\263/\312\235\301\224<\0159\276X<\216"
 286      4EF24551 
 286      B32FCA9D 
 286      C1943C0D 
 286      39BE583C 
 287 0489 6AE9697C 		.ascii	"j\351i|L.D\364\201/\032b<\367]\2340k\226\245\322p\214"
 287      4C2E44F4 
 287      812F1A62 
 287      3CF75D9C 
 287      306B96A5 
 288 04a0 B5885EA0 		.ascii	"\265\210^\240\003\020>H\303\237\240eb\022\211\236\263"
 288      03103E48 
 288      C39FA065 
 288      6212899E 
 288      B3
 289 04b1 D6E4BA4B 		.ascii	"\326\344\272K\243\353\377/\332\334TZ\304\363\325\354"
 289      A3EBFF2F 
 289      DADC545A 
ARM GAS  C:\Users\zozo\AppData\Local\Temp\ccwroZif.s 			page 22


 289      C4F3D5EC 
 290 04c1 537CCA34 		.ascii	"S|\3124a\344\371V6y\\x\243\315su\267,\007gh\321S\310"
 290      61E4F956 
 290      36795C78 
 290      A3CD7375 
 290      B72C0767 
 291 04d9 02DF586A 		.ascii	"\002\337Xj\315q\331\332<|\313hMNx\032{\034\343d\034"
 291      CD71D9DA 
 291      3C7CCB68 
 291      4D4E781A 
 291      7B1CE364 
 292 04ee 6FB56F5E 		.ascii	"o\265o^M\002\3203\340\007\366\247\244\3300a\011=G\253"
 292      4D02D033 
 292      E007F6A7 
 292      A4D83061 
 292      093D47AB 
 293 0502 393482D6 		.ascii	"94\202\326\002\300\314\364H)\317\217\260\012f<Z\215"
 293      02C0CCF4 
 293      4829CF8F 
 293      B00A663C 
 293      5A8D
 294 0514 801538E1 		.ascii	"\200\0258\3418>\025\323\375\223\232y\242\312\035*\030"
 294      383E15D3 
 294      FD939A79 
 294      A2CA1D2A 
 294      18
 295 0525 F3FBCFDF 		.ascii	"\363\373\317\337\332\327x\030\323=@/\201QF\277\204\250"
 295      DAD77818 
 295      D33D402F 
 295      815146BF 
 295      84A8
 296 0537 510A3F46 		.ascii	"Q\012?F\266\3508\205\317~\232y\324\223\217\343)|W\251"
 296      B6E83885 
 296      CF7E9A79 
 296      D4938FE3 
 296      297C57A9 
 297 054b CDAC60F0 		.ascii	"\315\254`\360t>v\277\275J\303\240Kj\234\241'\336\202"
 297      743E76BF 
 297      BD4AC3A0 
 297      4B6A9CA1 
 297      27DE82
 298 055e 9EA0D02F 		.ascii	"\236\240\320/\010\264\225B7T\365\035S\360Y\014\272\367"
 298      08B49542 
 298      3754F51D 
 298      53F0590C 
 298      BAF7
 299 0570 79578A27 		.ascii	"yW\212'\203v#sc\347\354\200\234B\033\317V\340-R\350"
 299      83762373 
 299      63E7EC80 
 299      9C421BCF 
 299      56E02D52 
 300 0585 C9B7A027 		.ascii	"\311\267\240')\364\024\201\236\246\320\207\2177\245"
 300      29F41481 
 300      9EA6D087 
 300      8F37A5
 301 0594 397F7EC8 		.ascii	"9\177~\310n\233O\260\261\333\231\374\223\033z\346\\"
 301      6E9B4FB0 
ARM GAS  C:\Users\zozo\AppData\Local\Temp\ccwroZif.s 			page 23


 301      B1DB99FC 
 301      931B7AE6 
 301      5C
 302 05a5 8A7334E1 		.ascii	"\212s4\341~>\372\245\020M\376\335b\366G\031\002\025"
 302      7E3EFAA5 
 302      104DFEDD 
 302      62F64719 
 302      0215
 303 05b7 3B76EDD1 		.ascii	";v\355\321\006sk\375\367\356\320E\351\364\341\006\335"
 303      06736BFD 
 303      F7EED045 
 303      E9F4E106 
 303      DD
 304 05c8 BEB0D0E8 		.ascii	"\276\260\320\350\030}\204noHht\360\306\275\021\261\206"
 304      187D846E 
 304      6F486874 
 304      F0C6BD11 
 304      B186
 305 05da D803BA83 		.ascii	"\330\003\272\203\376\221\334\222\320\257\303v\037\012"
 305      FE91DC92 
 305      D0AFC376 
 305      1F0A
 306 05e8 DB13F4D5 		.ascii	"\333\023\364\325\356\260PC\270\336\340\267h\322|\244"
 306      EEB05043 
 306      B8DEE0B7 
 306      68D27CA4 
 307 05f8 7F04E7ED 		.ascii	"\177\004\347\355\224\027}@\036\021\031\256w#?\201+$"
 307      94177D40 
 307      1E1119AE 
 307      77233F81 
 307      2B24
 308 060a AF42620C 		.ascii	"\257Bb\014\241\006\375\376\250\357\025\244\261\015\353"
 308      A106FDFE 
 308      A8EF15A4 
 308      B10DEB
 309 0619 973BBF0B 		.ascii	"\227;\277\013\322\353\303c\337s\366\355\324\035\332"
 309      D2EBC363 
 309      DF73F6ED 
 309      D41DDA
 310 0628 1A6BD0D1 		.ascii	"\032k\320\321\204\200M+\336z\371y\224a\231\2633\370"
 310      84804D2B 
 310      DE7AF979 
 310      946199B3 
 310      33F8
 311 063a AB2FB7BB 		.ascii	"\253/\267\273\272\240\221wZI$\247\221dF\352\016-w\236"
 311      BAA09177 
 311      5A4924A7 
 311      916446EA 
 311      0E2D779E 
 312 064e FA6F0C08 		.ascii	"\372o\014\010\014\\\372Q\300\372\015\033?\336\364I\340"
 312      0C5CFA51 
 312      C0FA0D1B 
 312      3FDEF449 
 312      E0
 313 065f A7415B83 		.ascii	"\247A[\203\267}\266\235\363\221D\035\330\037\265M\037"
 313      B77DB69D 
 313      F391441D 
ARM GAS  C:\Users\zozo\AppData\Local\Temp\ccwroZif.s 			page 24


 313      D81FB54D 
 313      1F
 314 0670 B44FAF3B 		.ascii	"\264O\257;xp\225\263;$Zo\330\025\363\323w:\375\012\347"
 314      787095B3 
 314      3B245A6F 
 314      D815F3D3 
 314      773AFD0A 
 315 0685 17CCF91F 		.ascii	"\027\314\371\037\007\316\2631"
 315      07CEB331 
 316              		.text
 317              		.section	.gnu.lto_.symtab.d922703d,"",%progbits
 318 0000 53575F54 		.ascii	"SW_Tx_UART_Start\000\000\000\000\000\000\000\000\000"
 318      785F5541 
 318      52545F53 
 318      74617274 
 318      00000000 
 319 0019 000000B1 		.ascii	"\000\000\000\261\000\000\000SW_Tx_UART_Stop\000\000"
 319      00000053 
 319      575F5478 
 319      5F554152 
 319      545F5374 
 320 0031 00000000 		.ascii	"\000\000\000\000\000\000\000\000\000\000\263\000\000"
 320      00000000 
 320      0000B300 
 320      00
 321 003e 0053575F 		.ascii	"\000SW_Tx_UART_PutString\000\000\000\000\000\000\000"
 321      54785F55 
 321      4152545F 
 321      50757453 
 321      7472696E 
 322 005a 00000000 		.ascii	"\000\000\000\000\000\303\000\000\000SW_Tx_UART_PutA"
 322      00C30000 
 322      0053575F 
 322      54785F55 
 322      4152545F 
 323 0072 72726179 		.ascii	"rray\000\000\000\000\000\000\000\000\000\000\000\000"
 323      00000000 
 323      00000000 
 323      00000000 
 324 0082 CF000000 		.ascii	"\317\000\000\000SW_Tx_UART_PutHexByte\000\000\000\000"
 324      53575F54 
 324      785F5541 
 324      52545F50 
 324      75744865 
 325 009f 00000000 		.ascii	"\000\000\000\000\000\000\000\000\323\000\000\000SW_"
 325      00000000 
 325      D3000000 
 325      53575F
 326 00ae 54785F55 		.ascii	"Tx_UART_PutHexInt\000\000\000\000\000\000\000\000\000"
 326      4152545F 
 326      50757448 
 326      6578496E 
 326      74000000 
 327 00c8 000000DC 		.ascii	"\000\000\000\334\000\000\000SW_Tx_UART_PutCRLF\000\000"
 327      00000053 
 327      575F5478 
 327      5F554152 
ARM GAS  C:\Users\zozo\AppData\Local\Temp\ccwroZif.s 			page 25


 327      545F5075 
 328 00e3 00000000 		.ascii	"\000\000\000\000\000\000\000\000\000\000\336\000\000"
 328      00000000 
 328      0000DE00 
 328      00
 329 00f0 0053575F 		.ascii	"\000SW_Tx_UART_pinDrAdress\000\000\000\000\000\000\000"
 329      54785F55 
 329      4152545F 
 329      70696E44 
 329      72416472 
 330 010e 00000000 		.ascii	"\000\000\000\000\000\355\000\000\000SW_Tx_UART_pinP"
 330      00ED0000 
 330      0053575F 
 330      54785F55 
 330      4152545F 
 331 0126 6F72744E 		.ascii	"ortNumber\000\000\000\000\000\000\000\000\000\000\000"
 331      756D6265 
 331      72000000 
 331      00000000 
 331      00000000 
 332 013a 00F00000 		.ascii	"\000\360\000\000\000SW_Tx_UART_pinNumber\000\000\000"
 332      0053575F 
 332      54785F55 
 332      4152545F 
 332      70696E4E 
 333 0156 00000000 		.ascii	"\000\000\000\000\000\000\000\000\000\363\000\000\000"
 333      00000000 
 333      00F30000 
 333      00
 334 0163 53575F54 		.ascii	"SW_Tx_UART_PutChar\000\000\002\000\000\000\000\000\000"
 334      785F5541 
 334      52545F50 
 334      75744368 
 334      61720000 
 335 017e 000000E0 		.ascii	"\000\000\000\340\000\000\000"
 335      000000
 336              		.text
 337              		.section	.gnu.lto_.opts,"",%progbits
 338 0000 272D666E 		.ascii	"'-fno-trapv' '-mcpu=cortex-m0' '-mthumb' '-g' '-Os'"
 338      6F2D7472 
 338      61707627 
 338      20272D6D 
 338      6370753D 
 339 0033 20272D66 		.ascii	" '-ffunction-sections' '-flto' '-ffat-lto-objects'\000"
 339      66756E63 
 339      74696F6E 
 339      2D736563 
 339      74696F6E 
 340              		.text
 341              		.cfi_sections	.debug_frame
 342              		.section	.text.SW_Tx_UART_Start,"ax",%progbits
 343              		.align	1
 344              		.global	SW_Tx_UART_Start
 345              		.code	16
 346              		.thumb_func
 347              		.type	SW_Tx_UART_Start, %function
 348              	SW_Tx_UART_Start:
ARM GAS  C:\Users\zozo\AppData\Local\Temp\ccwroZif.s 			page 26


 349              	.LFB0:
 350              		.file 1 ".\\Generated_Source\\PSoC4\\SW_Tx_UART.c"
   1:.\Generated_Source\PSoC4/SW_Tx_UART.c **** /*******************************************************************************
   2:.\Generated_Source\PSoC4/SW_Tx_UART.c **** * File Name: SW_Tx_UART.c
   3:.\Generated_Source\PSoC4/SW_Tx_UART.c **** * Version 1.50
   4:.\Generated_Source\PSoC4/SW_Tx_UART.c **** *
   5:.\Generated_Source\PSoC4/SW_Tx_UART.c **** * Description:
   6:.\Generated_Source\PSoC4/SW_Tx_UART.c **** *  This file provides the source code to the API for the Software Transmit UART.
   7:.\Generated_Source\PSoC4/SW_Tx_UART.c **** *
   8:.\Generated_Source\PSoC4/SW_Tx_UART.c **** ********************************************************************************
   9:.\Generated_Source\PSoC4/SW_Tx_UART.c **** * Copyright 2013-2015, Cypress Semiconductor Corporation.  All rights reserved.
  10:.\Generated_Source\PSoC4/SW_Tx_UART.c **** * You may use this file only in accordance with the license, terms, conditions,
  11:.\Generated_Source\PSoC4/SW_Tx_UART.c **** * disclaimers, and limitations in the end user license agreement accompanying
  12:.\Generated_Source\PSoC4/SW_Tx_UART.c **** * the software package with which this file was provided.
  13:.\Generated_Source\PSoC4/SW_Tx_UART.c **** *******************************************************************************/
  14:.\Generated_Source\PSoC4/SW_Tx_UART.c **** 
  15:.\Generated_Source\PSoC4/SW_Tx_UART.c **** #include "SW_Tx_UART_PVT.h"
  16:.\Generated_Source\PSoC4/SW_Tx_UART.c **** 
  17:.\Generated_Source\PSoC4/SW_Tx_UART.c **** #if(SW_Tx_UART_PIN_STATIC_MODE == 1u)
  18:.\Generated_Source\PSoC4/SW_Tx_UART.c ****     uint32 SW_Tx_UART_pinNumber = SW_Tx_UART_PIN_NUMBER;
  19:.\Generated_Source\PSoC4/SW_Tx_UART.c ****     uint32 SW_Tx_UART_pinPortNumber = SW_Tx_UART_PIN_PORT_NUMBER;
  20:.\Generated_Source\PSoC4/SW_Tx_UART.c ****     #if(CY_PSOC3)
  21:.\Generated_Source\PSoC4/SW_Tx_UART.c ****         uint32 pdata SW_Tx_UART_pinDrAdress = SW_Tx_UART_PIN_DR;
  22:.\Generated_Source\PSoC4/SW_Tx_UART.c ****     #else
  23:.\Generated_Source\PSoC4/SW_Tx_UART.c ****         uint32 SW_Tx_UART_pinDrAdress = SW_Tx_UART_PIN_DR;
  24:.\Generated_Source\PSoC4/SW_Tx_UART.c ****     #endif /* (CY_PSOC3) */
  25:.\Generated_Source\PSoC4/SW_Tx_UART.c **** #else
  26:.\Generated_Source\PSoC4/SW_Tx_UART.c ****     uint32 SW_Tx_UART_pinNumber;
  27:.\Generated_Source\PSoC4/SW_Tx_UART.c ****     uint32 SW_Tx_UART_pinPortNumber;
  28:.\Generated_Source\PSoC4/SW_Tx_UART.c ****     #if(CY_PSOC3)
  29:.\Generated_Source\PSoC4/SW_Tx_UART.c ****         uint32 pdata SW_Tx_UART_pinDrAdress;
  30:.\Generated_Source\PSoC4/SW_Tx_UART.c ****     #else
  31:.\Generated_Source\PSoC4/SW_Tx_UART.c ****         uint32 SW_Tx_UART_pinDrAdress;
  32:.\Generated_Source\PSoC4/SW_Tx_UART.c ****     #endif /* (CY_PSOC3) */
  33:.\Generated_Source\PSoC4/SW_Tx_UART.c **** #endif /* (SW_Tx_UART_PIN_STATIC_MODE == 1u) */
  34:.\Generated_Source\PSoC4/SW_Tx_UART.c **** 
  35:.\Generated_Source\PSoC4/SW_Tx_UART.c **** 
  36:.\Generated_Source\PSoC4/SW_Tx_UART.c **** #if(SW_Tx_UART_PIN_STATIC_MODE == 1u)
  37:.\Generated_Source\PSoC4/SW_Tx_UART.c ****     /*******************************************************************************
  38:.\Generated_Source\PSoC4/SW_Tx_UART.c ****     * Function Name: SW_Tx_UART_Start
  39:.\Generated_Source\PSoC4/SW_Tx_UART.c ****     ********************************************************************************
  40:.\Generated_Source\PSoC4/SW_Tx_UART.c ****     *
  41:.\Generated_Source\PSoC4/SW_Tx_UART.c ****     * Summary:
  42:.\Generated_Source\PSoC4/SW_Tx_UART.c ****     *  Empty function. Included for consistency with other
  43:.\Generated_Source\PSoC4/SW_Tx_UART.c ****     *  components. This API is not available when PinAssignmentMethod
  44:.\Generated_Source\PSoC4/SW_Tx_UART.c ****     *  is set to Dynamic.
  45:.\Generated_Source\PSoC4/SW_Tx_UART.c ****     *
  46:.\Generated_Source\PSoC4/SW_Tx_UART.c ****     * Parameters:
  47:.\Generated_Source\PSoC4/SW_Tx_UART.c ****     *  None
  48:.\Generated_Source\PSoC4/SW_Tx_UART.c ****     *
  49:.\Generated_Source\PSoC4/SW_Tx_UART.c ****     * Return:
  50:.\Generated_Source\PSoC4/SW_Tx_UART.c ****     *  None
  51:.\Generated_Source\PSoC4/SW_Tx_UART.c ****     *
  52:.\Generated_Source\PSoC4/SW_Tx_UART.c ****     *******************************************************************************/
  53:.\Generated_Source\PSoC4/SW_Tx_UART.c ****     void SW_Tx_UART_Start(void) 
  54:.\Generated_Source\PSoC4/SW_Tx_UART.c ****     {
 351              		.loc 1 54 0
ARM GAS  C:\Users\zozo\AppData\Local\Temp\ccwroZif.s 			page 27


 352              		.cfi_startproc
  55:.\Generated_Source\PSoC4/SW_Tx_UART.c **** 
  56:.\Generated_Source\PSoC4/SW_Tx_UART.c ****     }
 353              		.loc 1 56 0
 354              		@ sp needed
 355 0000 7047     		bx	lr
 356              		.cfi_endproc
 357              	.LFE0:
 358              		.size	SW_Tx_UART_Start, .-SW_Tx_UART_Start
 359              		.section	.text.SW_Tx_UART_Stop,"ax",%progbits
 360              		.align	1
 361              		.global	SW_Tx_UART_Stop
 362              		.code	16
 363              		.thumb_func
 364              		.type	SW_Tx_UART_Stop, %function
 365              	SW_Tx_UART_Stop:
 366              	.LFB1:
  57:.\Generated_Source\PSoC4/SW_Tx_UART.c **** #else
  58:.\Generated_Source\PSoC4/SW_Tx_UART.c ****     /*******************************************************************************
  59:.\Generated_Source\PSoC4/SW_Tx_UART.c ****     * Function Name: SW_Tx_UART_StartEx
  60:.\Generated_Source\PSoC4/SW_Tx_UART.c ****     ********************************************************************************
  61:.\Generated_Source\PSoC4/SW_Tx_UART.c ****     *
  62:.\Generated_Source\PSoC4/SW_Tx_UART.c ****     * Summary:
  63:.\Generated_Source\PSoC4/SW_Tx_UART.c ****     *  Configures the SW Tx UART to use the pin specified
  64:.\Generated_Source\PSoC4/SW_Tx_UART.c ****     *  by the parameters. This API is only available when
  65:.\Generated_Source\PSoC4/SW_Tx_UART.c ****     *  PinAssignmentMethod is set to Dynamic.
  66:.\Generated_Source\PSoC4/SW_Tx_UART.c ****     *
  67:.\Generated_Source\PSoC4/SW_Tx_UART.c ****     * Parameters:
  68:.\Generated_Source\PSoC4/SW_Tx_UART.c ****     *  port:  Port number for dynamic pin assignment
  69:.\Generated_Source\PSoC4/SW_Tx_UART.c ****     *  pin:   Pin number for dynamic pin assignment
  70:.\Generated_Source\PSoC4/SW_Tx_UART.c ****     *
  71:.\Generated_Source\PSoC4/SW_Tx_UART.c ****     * Return:
  72:.\Generated_Source\PSoC4/SW_Tx_UART.c ****     *  None
  73:.\Generated_Source\PSoC4/SW_Tx_UART.c ****     *
  74:.\Generated_Source\PSoC4/SW_Tx_UART.c ****     *******************************************************************************/
  75:.\Generated_Source\PSoC4/SW_Tx_UART.c ****     void SW_Tx_UART_StartEx(uint8 port, uint8 pin) 
  76:.\Generated_Source\PSoC4/SW_Tx_UART.c ****     {
  77:.\Generated_Source\PSoC4/SW_Tx_UART.c ****         uint32 portConfigAddr;
  78:.\Generated_Source\PSoC4/SW_Tx_UART.c **** 
  79:.\Generated_Source\PSoC4/SW_Tx_UART.c ****         #if (CY_PSOC4)
  80:.\Generated_Source\PSoC4/SW_Tx_UART.c ****             uint32 portDataRegAddr;
  81:.\Generated_Source\PSoC4/SW_Tx_UART.c ****         #endif /* (CY_PSOC4) */
  82:.\Generated_Source\PSoC4/SW_Tx_UART.c **** 
  83:.\Generated_Source\PSoC4/SW_Tx_UART.c ****         if ((pin <= SW_Tx_UART_MAX_PIN_NUMBER) && (port <= SW_Tx_UART_MAX_PORT_NUMBER))
  84:.\Generated_Source\PSoC4/SW_Tx_UART.c ****         {
  85:.\Generated_Source\PSoC4/SW_Tx_UART.c ****             #if (!CY_PSOC4)
  86:.\Generated_Source\PSoC4/SW_Tx_UART.c ****                 portConfigAddr = SW_Tx_UART_PORT_CNF_BASE;
  87:.\Generated_Source\PSoC4/SW_Tx_UART.c ****                 portConfigAddr += ((uint32)port * (SW_Tx_UART_MAX_PIN_NUMBER + 1u)) + pin;
  88:.\Generated_Source\PSoC4/SW_Tx_UART.c ****                 CyPins_SetPinDriveMode(portConfigAddr, CY_PINS_DM_STRONG);
  89:.\Generated_Source\PSoC4/SW_Tx_UART.c ****                 CyPins_SetPin(portConfigAddr);
  90:.\Generated_Source\PSoC4/SW_Tx_UART.c ****                 SW_Tx_UART_pinDrAdress = portConfigAddr;
  91:.\Generated_Source\PSoC4/SW_Tx_UART.c ****             #else
  92:.\Generated_Source\PSoC4/SW_Tx_UART.c ****                 portConfigAddr = SW_Tx_UART_PORT_CNF_BASE + (SW_Tx_UART_PORT_CNF_SIZE * port) +
  93:.\Generated_Source\PSoC4/SW_Tx_UART.c ****                                                                                 SW_Tx_UART_PORT_CNF
  94:.\Generated_Source\PSoC4/SW_Tx_UART.c ****                 CY_SYS_PINS_SET_DRIVE_MODE(portConfigAddr, pin, CY_SYS_PINS_DM_STRONG);
  95:.\Generated_Source\PSoC4/SW_Tx_UART.c ****                 portDataRegAddr = SW_Tx_UART_PORT_CNF_BASE + (SW_Tx_UART_PORT_CNF_SIZE * port) +
  96:.\Generated_Source\PSoC4/SW_Tx_UART.c ****                                                                                 SW_Tx_UART_PORT_CNF
ARM GAS  C:\Users\zozo\AppData\Local\Temp\ccwroZif.s 			page 28


  97:.\Generated_Source\PSoC4/SW_Tx_UART.c ****                 CY_SYS_PINS_SET_PIN(portDataRegAddr, pin);
  98:.\Generated_Source\PSoC4/SW_Tx_UART.c ****                 SW_Tx_UART_pinDrAdress = portDataRegAddr;
  99:.\Generated_Source\PSoC4/SW_Tx_UART.c ****             #endif /* (!CY_PSOC4) */
 100:.\Generated_Source\PSoC4/SW_Tx_UART.c ****             SW_Tx_UART_pinNumber = pin;
 101:.\Generated_Source\PSoC4/SW_Tx_UART.c ****             SW_Tx_UART_pinPortNumber = port;
 102:.\Generated_Source\PSoC4/SW_Tx_UART.c ****         }
 103:.\Generated_Source\PSoC4/SW_Tx_UART.c ****     }
 104:.\Generated_Source\PSoC4/SW_Tx_UART.c **** #endif /* (SW_Tx_UART_PIN_STATIC_MODE == 1u) */
 105:.\Generated_Source\PSoC4/SW_Tx_UART.c **** 
 106:.\Generated_Source\PSoC4/SW_Tx_UART.c **** 
 107:.\Generated_Source\PSoC4/SW_Tx_UART.c **** /*******************************************************************************
 108:.\Generated_Source\PSoC4/SW_Tx_UART.c **** * Function Name: SW_Tx_UART_Stop
 109:.\Generated_Source\PSoC4/SW_Tx_UART.c **** ********************************************************************************
 110:.\Generated_Source\PSoC4/SW_Tx_UART.c **** *
 111:.\Generated_Source\PSoC4/SW_Tx_UART.c **** * Summary:
 112:.\Generated_Source\PSoC4/SW_Tx_UART.c **** *  Empty function. Included for consistency with other components.
 113:.\Generated_Source\PSoC4/SW_Tx_UART.c **** *
 114:.\Generated_Source\PSoC4/SW_Tx_UART.c **** * Parameters:
 115:.\Generated_Source\PSoC4/SW_Tx_UART.c **** *  None
 116:.\Generated_Source\PSoC4/SW_Tx_UART.c **** *
 117:.\Generated_Source\PSoC4/SW_Tx_UART.c **** * Return:
 118:.\Generated_Source\PSoC4/SW_Tx_UART.c **** *  None
 119:.\Generated_Source\PSoC4/SW_Tx_UART.c **** *
 120:.\Generated_Source\PSoC4/SW_Tx_UART.c **** *******************************************************************************/
 121:.\Generated_Source\PSoC4/SW_Tx_UART.c **** void SW_Tx_UART_Stop(void) 
 122:.\Generated_Source\PSoC4/SW_Tx_UART.c **** {
 367              		.loc 1 122 0
 368              		.cfi_startproc
 123:.\Generated_Source\PSoC4/SW_Tx_UART.c **** 
 124:.\Generated_Source\PSoC4/SW_Tx_UART.c **** }
 369              		.loc 1 124 0
 370              		@ sp needed
 371 0000 7047     		bx	lr
 372              		.cfi_endproc
 373              	.LFE1:
 374              		.size	SW_Tx_UART_Stop, .-SW_Tx_UART_Stop
 375              		.section	.text.SW_Tx_UART_PutString,"ax",%progbits
 376              		.align	1
 377              		.global	SW_Tx_UART_PutString
 378              		.code	16
 379              		.thumb_func
 380              		.type	SW_Tx_UART_PutString, %function
 381              	SW_Tx_UART_PutString:
 382              	.LFB2:
 125:.\Generated_Source\PSoC4/SW_Tx_UART.c **** 
 126:.\Generated_Source\PSoC4/SW_Tx_UART.c **** 
 127:.\Generated_Source\PSoC4/SW_Tx_UART.c **** /*******************************************************************************
 128:.\Generated_Source\PSoC4/SW_Tx_UART.c **** * Function Name: SW_Tx_UART_PutString
 129:.\Generated_Source\PSoC4/SW_Tx_UART.c **** ********************************************************************************
 130:.\Generated_Source\PSoC4/SW_Tx_UART.c **** *
 131:.\Generated_Source\PSoC4/SW_Tx_UART.c **** * Summary:
 132:.\Generated_Source\PSoC4/SW_Tx_UART.c **** *  Sends a NULL terminated string via the Tx pin.
 133:.\Generated_Source\PSoC4/SW_Tx_UART.c **** *
 134:.\Generated_Source\PSoC4/SW_Tx_UART.c **** * Parameters:
 135:.\Generated_Source\PSoC4/SW_Tx_UART.c **** *  string: Pointer to the null terminated string to send
 136:.\Generated_Source\PSoC4/SW_Tx_UART.c **** *
 137:.\Generated_Source\PSoC4/SW_Tx_UART.c **** * Return:
ARM GAS  C:\Users\zozo\AppData\Local\Temp\ccwroZif.s 			page 29


 138:.\Generated_Source\PSoC4/SW_Tx_UART.c **** *  None
 139:.\Generated_Source\PSoC4/SW_Tx_UART.c **** *
 140:.\Generated_Source\PSoC4/SW_Tx_UART.c **** *******************************************************************************/
 141:.\Generated_Source\PSoC4/SW_Tx_UART.c **** void SW_Tx_UART_PutString(const char8 string[]) 
 142:.\Generated_Source\PSoC4/SW_Tx_UART.c **** {
 383              		.loc 1 142 0
 384              		.cfi_startproc
 385              	.LVL0:
 386 0000 38B5     		push	{r3, r4, r5, lr}
 387              		.cfi_def_cfa_offset 16
 388              		.cfi_offset 3, -16
 389              		.cfi_offset 4, -12
 390              		.cfi_offset 5, -8
 391              		.cfi_offset 14, -4
 143:.\Generated_Source\PSoC4/SW_Tx_UART.c ****     uint8 stringIndex = 1u;
 392              		.loc 1 143 0
 393 0002 0124     		mov	r4, #1
 142:.\Generated_Source\PSoC4/SW_Tx_UART.c ****     uint8 stringIndex = 1u;
 394              		.loc 1 142 0
 395 0004 051C     		mov	r5, r0
 144:.\Generated_Source\PSoC4/SW_Tx_UART.c ****     char8 current = *string;
 396              		.loc 1 144 0
 397 0006 0078     		ldrb	r0, [r0]
 398              	.LVL1:
 399              	.L4:
 145:.\Generated_Source\PSoC4/SW_Tx_UART.c **** 
 146:.\Generated_Source\PSoC4/SW_Tx_UART.c ****     /* Until null is reached, print next character */
 147:.\Generated_Source\PSoC4/SW_Tx_UART.c ****     while((char8) '\0' != current)
 400              		.loc 1 147 0
 401 0008 0028     		cmp	r0, #0
 402 000a 05D0     		beq	.L7
 148:.\Generated_Source\PSoC4/SW_Tx_UART.c ****     {
 149:.\Generated_Source\PSoC4/SW_Tx_UART.c ****         SW_Tx_UART_PutChar((uint8)current);
 403              		.loc 1 149 0
 404 000c FFF7FEFF 		bl	SW_Tx_UART_PutChar
 405              	.LVL2:
 150:.\Generated_Source\PSoC4/SW_Tx_UART.c ****         current = string[stringIndex];
 406              		.loc 1 150 0
 407 0010 285D     		ldrb	r0, [r5, r4]
 408              	.LVL3:
 151:.\Generated_Source\PSoC4/SW_Tx_UART.c ****         stringIndex++;
 409              		.loc 1 151 0
 410 0012 0134     		add	r4, r4, #1
 411              	.LVL4:
 412 0014 E4B2     		uxtb	r4, r4
 413              	.LVL5:
 414 0016 F7E7     		b	.L4
 415              	.L7:
 152:.\Generated_Source\PSoC4/SW_Tx_UART.c ****     }
 153:.\Generated_Source\PSoC4/SW_Tx_UART.c **** }
 416              		.loc 1 153 0
 417              		@ sp needed
 418              	.LVL6:
 419              	.LVL7:
 420 0018 38BD     		pop	{r3, r4, r5, pc}
 421              		.cfi_endproc
 422              	.LFE2:
ARM GAS  C:\Users\zozo\AppData\Local\Temp\ccwroZif.s 			page 30


 423              		.size	SW_Tx_UART_PutString, .-SW_Tx_UART_PutString
 424              		.section	.text.SW_Tx_UART_PutArray,"ax",%progbits
 425              		.align	1
 426              		.global	SW_Tx_UART_PutArray
 427              		.code	16
 428              		.thumb_func
 429              		.type	SW_Tx_UART_PutArray, %function
 430              	SW_Tx_UART_PutArray:
 431              	.LFB3:
 154:.\Generated_Source\PSoC4/SW_Tx_UART.c **** 
 155:.\Generated_Source\PSoC4/SW_Tx_UART.c **** 
 156:.\Generated_Source\PSoC4/SW_Tx_UART.c **** /*******************************************************************************
 157:.\Generated_Source\PSoC4/SW_Tx_UART.c **** * Function Name: SW_Tx_UART_PutArray
 158:.\Generated_Source\PSoC4/SW_Tx_UART.c **** ********************************************************************************
 159:.\Generated_Source\PSoC4/SW_Tx_UART.c **** *
 160:.\Generated_Source\PSoC4/SW_Tx_UART.c **** * Summary:
 161:.\Generated_Source\PSoC4/SW_Tx_UART.c **** *  Sends byteCount bytes from a memory array via the Tx pin.
 162:.\Generated_Source\PSoC4/SW_Tx_UART.c **** *
 163:.\Generated_Source\PSoC4/SW_Tx_UART.c **** * Parameters:
 164:.\Generated_Source\PSoC4/SW_Tx_UART.c **** *  data: Pointer to the memory array
 165:.\Generated_Source\PSoC4/SW_Tx_UART.c **** *  byteCount: Number of bytes to be transmitted
 166:.\Generated_Source\PSoC4/SW_Tx_UART.c **** *
 167:.\Generated_Source\PSoC4/SW_Tx_UART.c **** * Return:
 168:.\Generated_Source\PSoC4/SW_Tx_UART.c **** *  None
 169:.\Generated_Source\PSoC4/SW_Tx_UART.c **** *
 170:.\Generated_Source\PSoC4/SW_Tx_UART.c **** *******************************************************************************/
 171:.\Generated_Source\PSoC4/SW_Tx_UART.c **** void SW_Tx_UART_PutArray(const uint8 array[], uint32 byteCount) 
 172:.\Generated_Source\PSoC4/SW_Tx_UART.c **** {
 432              		.loc 1 172 0
 433              		.cfi_startproc
 434              	.LVL8:
 435 0000 38B5     		push	{r3, r4, r5, lr}
 436              		.cfi_def_cfa_offset 16
 437              		.cfi_offset 3, -16
 438              		.cfi_offset 4, -12
 439              		.cfi_offset 5, -8
 440              		.cfi_offset 14, -4
 441 0002 041C     		mov	r4, r0
 442 0004 4518     		add	r5, r0, r1
 443              	.LVL9:
 444              	.L9:
 173:.\Generated_Source\PSoC4/SW_Tx_UART.c ****     uint32 arrayIndex;
 174:.\Generated_Source\PSoC4/SW_Tx_UART.c **** 
 175:.\Generated_Source\PSoC4/SW_Tx_UART.c ****     for (arrayIndex = 0u; arrayIndex < byteCount; arrayIndex++)
 445              		.loc 1 175 0 discriminator 1
 446 0006 AC42     		cmp	r4, r5
 447 0008 04D0     		beq	.L11
 176:.\Generated_Source\PSoC4/SW_Tx_UART.c ****     {
 177:.\Generated_Source\PSoC4/SW_Tx_UART.c ****         SW_Tx_UART_PutChar(array[arrayIndex]);
 448              		.loc 1 177 0 discriminator 3
 449 000a 2078     		ldrb	r0, [r4]
 450 000c FFF7FEFF 		bl	SW_Tx_UART_PutChar
 451              	.LVL10:
 452 0010 0134     		add	r4, r4, #1
 453              	.LVL11:
 454 0012 F8E7     		b	.L9
 455              	.L11:
ARM GAS  C:\Users\zozo\AppData\Local\Temp\ccwroZif.s 			page 31


 178:.\Generated_Source\PSoC4/SW_Tx_UART.c ****     }
 179:.\Generated_Source\PSoC4/SW_Tx_UART.c **** }
 456              		.loc 1 179 0
 457              		@ sp needed
 458              	.LVL12:
 459 0014 38BD     		pop	{r3, r4, r5, pc}
 460              		.cfi_endproc
 461              	.LFE3:
 462              		.size	SW_Tx_UART_PutArray, .-SW_Tx_UART_PutArray
 463              		.section	.text.SW_Tx_UART_PutHexByte,"ax",%progbits
 464              		.align	1
 465              		.global	SW_Tx_UART_PutHexByte
 466              		.code	16
 467              		.thumb_func
 468              		.type	SW_Tx_UART_PutHexByte, %function
 469              	SW_Tx_UART_PutHexByte:
 470              	.LFB4:
 180:.\Generated_Source\PSoC4/SW_Tx_UART.c **** 
 181:.\Generated_Source\PSoC4/SW_Tx_UART.c **** 
 182:.\Generated_Source\PSoC4/SW_Tx_UART.c **** /*******************************************************************************
 183:.\Generated_Source\PSoC4/SW_Tx_UART.c **** * Function Name: SW_Tx_UART_PutHexByte
 184:.\Generated_Source\PSoC4/SW_Tx_UART.c **** ********************************************************************************
 185:.\Generated_Source\PSoC4/SW_Tx_UART.c **** *
 186:.\Generated_Source\PSoC4/SW_Tx_UART.c **** * Summary:
 187:.\Generated_Source\PSoC4/SW_Tx_UART.c **** *  Sends a byte in Hex representation (two characters, uppercase for A-F) via
 188:.\Generated_Source\PSoC4/SW_Tx_UART.c **** *  the Tx pin.
 189:.\Generated_Source\PSoC4/SW_Tx_UART.c **** *
 190:.\Generated_Source\PSoC4/SW_Tx_UART.c **** * Parameters:
 191:.\Generated_Source\PSoC4/SW_Tx_UART.c **** *  TxHexByte: The byte to be converted to ASCII characters and
 192:.\Generated_Source\PSoC4/SW_Tx_UART.c **** *             sent via the Tx pin.
 193:.\Generated_Source\PSoC4/SW_Tx_UART.c **** *
 194:.\Generated_Source\PSoC4/SW_Tx_UART.c **** * Return:
 195:.\Generated_Source\PSoC4/SW_Tx_UART.c **** *  None
 196:.\Generated_Source\PSoC4/SW_Tx_UART.c **** *
 197:.\Generated_Source\PSoC4/SW_Tx_UART.c **** *******************************************************************************/
 198:.\Generated_Source\PSoC4/SW_Tx_UART.c **** void SW_Tx_UART_PutHexByte(uint8 txHexByte) 
 199:.\Generated_Source\PSoC4/SW_Tx_UART.c **** {
 471              		.loc 1 199 0
 472              		.cfi_startproc
 473              	.LVL13:
 474 0000 38B5     		push	{r3, r4, r5, lr}
 475              		.cfi_def_cfa_offset 16
 476              		.cfi_offset 3, -16
 477              		.cfi_offset 4, -12
 478              		.cfi_offset 5, -8
 479              		.cfi_offset 14, -4
 200:.\Generated_Source\PSoC4/SW_Tx_UART.c ****     static char8 const CYCODE SW_Tx_UART_hex[] = "0123456789ABCDEF";
 201:.\Generated_Source\PSoC4/SW_Tx_UART.c **** 
 202:.\Generated_Source\PSoC4/SW_Tx_UART.c ****     SW_Tx_UART_PutChar((uint8) SW_Tx_UART_hex[txHexByte >> SW_Tx_UART_BYTE_UPPER_NIBBLE_SHIFT]);
 480              		.loc 1 202 0
 481 0002 064C     		ldr	r4, .L13
 482 0004 0309     		lsr	r3, r0, #4
 199:.\Generated_Source\PSoC4/SW_Tx_UART.c ****     static char8 const CYCODE SW_Tx_UART_hex[] = "0123456789ABCDEF";
 483              		.loc 1 199 0
 484 0006 051C     		mov	r5, r0
 485              		.loc 1 202 0
 486 0008 E05C     		ldrb	r0, [r4, r3]
ARM GAS  C:\Users\zozo\AppData\Local\Temp\ccwroZif.s 			page 32


 487              	.LVL14:
 488 000a FFF7FEFF 		bl	SW_Tx_UART_PutChar
 489              	.LVL15:
 203:.\Generated_Source\PSoC4/SW_Tx_UART.c ****     SW_Tx_UART_PutChar((uint8) SW_Tx_UART_hex[txHexByte & SW_Tx_UART_BYTE_LOWER_NIBBLE_MASK]);
 490              		.loc 1 203 0
 491 000e 0F20     		mov	r0, #15
 492 0010 2840     		and	r0, r5
 493 0012 205C     		ldrb	r0, [r4, r0]
 494 0014 FFF7FEFF 		bl	SW_Tx_UART_PutChar
 495              	.LVL16:
 204:.\Generated_Source\PSoC4/SW_Tx_UART.c **** }
 496              		.loc 1 204 0
 497              		@ sp needed
 498 0018 38BD     		pop	{r3, r4, r5, pc}
 499              	.L14:
 500 001a C046     		.align	2
 501              	.L13:
 502 001c 00000000 		.word	.LANCHOR0
 503              		.cfi_endproc
 504              	.LFE4:
 505              		.size	SW_Tx_UART_PutHexByte, .-SW_Tx_UART_PutHexByte
 506              		.section	.text.SW_Tx_UART_PutHexInt,"ax",%progbits
 507              		.align	1
 508              		.global	SW_Tx_UART_PutHexInt
 509              		.code	16
 510              		.thumb_func
 511              		.type	SW_Tx_UART_PutHexInt, %function
 512              	SW_Tx_UART_PutHexInt:
 513              	.LFB5:
 205:.\Generated_Source\PSoC4/SW_Tx_UART.c **** 
 206:.\Generated_Source\PSoC4/SW_Tx_UART.c **** 
 207:.\Generated_Source\PSoC4/SW_Tx_UART.c **** /*******************************************************************************
 208:.\Generated_Source\PSoC4/SW_Tx_UART.c **** * Function Name: SW_Tx_UART_PutHexInt
 209:.\Generated_Source\PSoC4/SW_Tx_UART.c **** ********************************************************************************
 210:.\Generated_Source\PSoC4/SW_Tx_UART.c **** *
 211:.\Generated_Source\PSoC4/SW_Tx_UART.c **** * Summary:
 212:.\Generated_Source\PSoC4/SW_Tx_UART.c **** *  Sends a 16-bit unsigned integer in Hex representation (four characters,
 213:.\Generated_Source\PSoC4/SW_Tx_UART.c **** *  uppercase for A-F) via the Tx pin.
 214:.\Generated_Source\PSoC4/SW_Tx_UART.c **** *
 215:.\Generated_Source\PSoC4/SW_Tx_UART.c **** * Parameters:
 216:.\Generated_Source\PSoC4/SW_Tx_UART.c **** *  TxHexInt: The uint16 to be converted to ASCII characters and sent via
 217:.\Generated_Source\PSoC4/SW_Tx_UART.c **** *            the Tx pin.
 218:.\Generated_Source\PSoC4/SW_Tx_UART.c **** *
 219:.\Generated_Source\PSoC4/SW_Tx_UART.c **** * Return:
 220:.\Generated_Source\PSoC4/SW_Tx_UART.c **** *  None
 221:.\Generated_Source\PSoC4/SW_Tx_UART.c **** *
 222:.\Generated_Source\PSoC4/SW_Tx_UART.c **** *******************************************************************************/
 223:.\Generated_Source\PSoC4/SW_Tx_UART.c **** void SW_Tx_UART_PutHexInt(uint16 txHexInt) 
 224:.\Generated_Source\PSoC4/SW_Tx_UART.c **** {
 514              		.loc 1 224 0
 515              		.cfi_startproc
 516              	.LVL17:
 517 0000 10B5     		push	{r4, lr}
 518              		.cfi_def_cfa_offset 8
 519              		.cfi_offset 4, -8
 520              		.cfi_offset 14, -4
 521              		.loc 1 224 0
ARM GAS  C:\Users\zozo\AppData\Local\Temp\ccwroZif.s 			page 33


 522 0002 041C     		mov	r4, r0
 225:.\Generated_Source\PSoC4/SW_Tx_UART.c ****     SW_Tx_UART_PutHexByte((uint8)(txHexInt >> SW_Tx_UART_U16_UPPER_BYTE_SHIFT));
 523              		.loc 1 225 0
 524 0004 000A     		lsr	r0, r0, #8
 525              	.LVL18:
 526 0006 FFF7FEFF 		bl	SW_Tx_UART_PutHexByte
 527              	.LVL19:
 226:.\Generated_Source\PSoC4/SW_Tx_UART.c ****     SW_Tx_UART_PutHexByte((uint8)(txHexInt & SW_Tx_UART_U16_LOWER_BYTE_MASK));
 528              		.loc 1 226 0
 529 000a E0B2     		uxtb	r0, r4
 530 000c FFF7FEFF 		bl	SW_Tx_UART_PutHexByte
 531              	.LVL20:
 227:.\Generated_Source\PSoC4/SW_Tx_UART.c **** }
 532              		.loc 1 227 0
 533              		@ sp needed
 534 0010 10BD     		pop	{r4, pc}
 535              		.cfi_endproc
 536              	.LFE5:
 537              		.size	SW_Tx_UART_PutHexInt, .-SW_Tx_UART_PutHexInt
 538              		.section	.text.SW_Tx_UART_PutCRLF,"ax",%progbits
 539              		.align	1
 540              		.global	SW_Tx_UART_PutCRLF
 541              		.code	16
 542              		.thumb_func
 543              		.type	SW_Tx_UART_PutCRLF, %function
 544              	SW_Tx_UART_PutCRLF:
 545              	.LFB6:
 228:.\Generated_Source\PSoC4/SW_Tx_UART.c **** 
 229:.\Generated_Source\PSoC4/SW_Tx_UART.c **** 
 230:.\Generated_Source\PSoC4/SW_Tx_UART.c **** /*******************************************************************************
 231:.\Generated_Source\PSoC4/SW_Tx_UART.c **** * Function Name: SW_Tx_UART_PutCRLF
 232:.\Generated_Source\PSoC4/SW_Tx_UART.c **** ********************************************************************************
 233:.\Generated_Source\PSoC4/SW_Tx_UART.c **** *
 234:.\Generated_Source\PSoC4/SW_Tx_UART.c **** * Summary:
 235:.\Generated_Source\PSoC4/SW_Tx_UART.c **** *  Sends a carriage return (0x0D) and a line feed (0x0A) via the Tx pin.
 236:.\Generated_Source\PSoC4/SW_Tx_UART.c **** *
 237:.\Generated_Source\PSoC4/SW_Tx_UART.c **** * Parameters:
 238:.\Generated_Source\PSoC4/SW_Tx_UART.c **** *  None
 239:.\Generated_Source\PSoC4/SW_Tx_UART.c **** *
 240:.\Generated_Source\PSoC4/SW_Tx_UART.c **** * Return:
 241:.\Generated_Source\PSoC4/SW_Tx_UART.c **** *  None
 242:.\Generated_Source\PSoC4/SW_Tx_UART.c **** *
 243:.\Generated_Source\PSoC4/SW_Tx_UART.c **** *******************************************************************************/
 244:.\Generated_Source\PSoC4/SW_Tx_UART.c **** void SW_Tx_UART_PutCRLF(void) 
 245:.\Generated_Source\PSoC4/SW_Tx_UART.c **** {
 546              		.loc 1 245 0
 547              		.cfi_startproc
 548 0000 08B5     		push	{r3, lr}
 549              		.cfi_def_cfa_offset 8
 550              		.cfi_offset 3, -8
 551              		.cfi_offset 14, -4
 246:.\Generated_Source\PSoC4/SW_Tx_UART.c ****     SW_Tx_UART_PutChar(0x0Du);
 552              		.loc 1 246 0
 553 0002 0D20     		mov	r0, #13
 554 0004 FFF7FEFF 		bl	SW_Tx_UART_PutChar
 555              	.LVL21:
 247:.\Generated_Source\PSoC4/SW_Tx_UART.c ****     SW_Tx_UART_PutChar(0x0Au);
ARM GAS  C:\Users\zozo\AppData\Local\Temp\ccwroZif.s 			page 34


 556              		.loc 1 247 0
 557 0008 0A20     		mov	r0, #10
 558 000a FFF7FEFF 		bl	SW_Tx_UART_PutChar
 559              	.LVL22:
 248:.\Generated_Source\PSoC4/SW_Tx_UART.c **** }
 560              		.loc 1 248 0
 561              		@ sp needed
 562 000e 08BD     		pop	{r3, pc}
 563              		.cfi_endproc
 564              	.LFE6:
 565              		.size	SW_Tx_UART_PutCRLF, .-SW_Tx_UART_PutCRLF
 566              		.global	SW_Tx_UART_pinDrAdress
 567              		.global	SW_Tx_UART_pinPortNumber
 568              		.global	SW_Tx_UART_pinNumber
 569              		.section	.rodata
 570              		.set	.LANCHOR0,. + 0
 571              		.type	SW_Tx_UART_hex.4188, %object
 572              		.size	SW_Tx_UART_hex.4188, 17
 573              	SW_Tx_UART_hex.4188:
 574 0000 30313233 		.ascii	"0123456789ABCDEF\000"
 574      34353637 
 574      38394142 
 574      43444546 
 574      00
 575              		.data
 576              		.align	2
 577              		.type	SW_Tx_UART_pinDrAdress, %object
 578              		.size	SW_Tx_UART_pinDrAdress, 4
 579              	SW_Tx_UART_pinDrAdress:
 580 0000 00010440 		.word	1074004224
 581              		.type	SW_Tx_UART_pinPortNumber, %object
 582              		.size	SW_Tx_UART_pinPortNumber, 4
 583              	SW_Tx_UART_pinPortNumber:
 584 0004 01000000 		.word	1
 585              		.type	SW_Tx_UART_pinNumber, %object
 586              		.size	SW_Tx_UART_pinNumber, 4
 587              	SW_Tx_UART_pinNumber:
 588 0008 05000000 		.word	5
 589              		.text
 590              	.Letext0:
 591              		.file 2 ".\\Generated_Source\\PSoC4\\cytypes.h"
 592              		.file 3 ".\\Generated_Source\\PSoC4\\SW_Tx_UART.h"